; Listing generated by Microsoft (R) Optimizing Compiler Version 14.00.50727.762 

	TITLE	d:\SySal2\SmartTracker8.5\TestDlg.cpp
	.686P
	.XMM
	include listing.inc
	.model	flat

INCLUDELIB MSVCRT
INCLUDELIB OLDNAMES

PUBLIC	??_C@_00CNPNBAHC@?$AA@				; `string'
PUBLIC	??_7CTestDlg@@6B@				; CTestDlg::`vftable'
PUBLIC	??0CTestDlg@@QAE@PAVCSmartTrackerClass@@PAVCWnd@@@Z ; CTestDlg::CTestDlg
PUBLIC	??_R4CTestDlg@@6B@				; CTestDlg::`RTTI Complete Object Locator'
PUBLIC	??_R0?AVCTestDlg@@@8				; CTestDlg `RTTI Type Descriptor'
PUBLIC	??_R3CTestDlg@@8				; CTestDlg::`RTTI Class Hierarchy Descriptor'
PUBLIC	??_R2CTestDlg@@8				; CTestDlg::`RTTI Base Class Array'
PUBLIC	??_R1A@?0A@EA@CTestDlg@@8			; CTestDlg::`RTTI Base Class Descriptor at (0,-1,0,64)'
PUBLIC	??_R1A@?0A@EA@CDialog@@8			; CDialog::`RTTI Base Class Descriptor at (0,-1,0,64)'
PUBLIC	??_R0?AVCDialog@@@8				; CDialog `RTTI Type Descriptor'
PUBLIC	??_R3CDialog@@8					; CDialog::`RTTI Class Hierarchy Descriptor'
PUBLIC	??_R2CDialog@@8					; CDialog::`RTTI Base Class Array'
PUBLIC	??_R1A@?0A@EA@CWnd@@8				; CWnd::`RTTI Base Class Descriptor at (0,-1,0,64)'
PUBLIC	??_R0?AVCWnd@@@8				; CWnd `RTTI Type Descriptor'
PUBLIC	??_R3CWnd@@8					; CWnd::`RTTI Class Hierarchy Descriptor'
PUBLIC	??_R2CWnd@@8					; CWnd::`RTTI Base Class Array'
PUBLIC	??_R1A@?0A@EA@CCmdTarget@@8			; CCmdTarget::`RTTI Base Class Descriptor at (0,-1,0,64)'
PUBLIC	??_R0?AVCCmdTarget@@@8				; CCmdTarget `RTTI Type Descriptor'
PUBLIC	??_R3CCmdTarget@@8				; CCmdTarget::`RTTI Class Hierarchy Descriptor'
PUBLIC	??_R2CCmdTarget@@8				; CCmdTarget::`RTTI Base Class Array'
PUBLIC	??_R1A@?0A@EA@CObject@@8			; CObject::`RTTI Base Class Descriptor at (0,-1,0,64)'
PUBLIC	??_R0?AVCObject@@@8				; CObject `RTTI Type Descriptor'
PUBLIC	??_R3CObject@@8					; CObject::`RTTI Class Hierarchy Descriptor'
PUBLIC	??_R2CObject@@8					; CObject::`RTTI Base Class Array'
PUBLIC	?Serialize@CObject@@UAEXAAVCArchive@@@Z		; CObject::Serialize
PUBLIC	?AssertValid@CObject@@UBEXXZ			; CObject::AssertValid
PUBLIC	?Dump@CObject@@UBEXAAVCDumpContext@@@Z		; CObject::Dump
PUBLIC	?GetMessageMap@CTestDlg@@MBEPBUAFX_MSGMAP@@XZ	; CTestDlg::GetMessageMap
PUBLIC	?DoDataExchange@CTestDlg@@MAEXPAVCDataExchange@@@Z ; CTestDlg::DoDataExchange
PUBLIC	?BeginModalState@CWnd@@UAEXXZ			; CWnd::BeginModalState
PUBLIC	?EndModalState@CWnd@@UAEXXZ			; CWnd::EndModalState
PUBLIC	?Create@CDialog@@UAEHIPAVCWnd@@@Z		; CDialog::Create
EXTRN	__imp_??1?$CStringT@DV?$StrTraitMFC_DLL@DV?$ChTraitsCRT@D@ATL@@@@@ATL@@QAE@XZ:PROC
EXTRN	??1CDialog@@UAE@XZ:PROC				; CDialog::~CDialog
EXTRN	__imp_??4?$CStringT@DV?$StrTraitMFC_DLL@DV?$ChTraitsCRT@D@ATL@@@@@ATL@@QAEAAV01@PBD@Z:PROC
EXTRN	__imp_??0?$CStringT@DV?$StrTraitMFC_DLL@DV?$ChTraitsCRT@D@ATL@@@@@ATL@@QAE@XZ:PROC
EXTRN	??0CDialog@@QAE@IPAVCWnd@@@Z:PROC		; CDialog::CDialog
EXTRN	___security_cookie:DWORD
EXTRN	___CxxFrameHandler3:PROC
EXTRN	@__security_check_cookie@4:PROC
EXTRN	??_7type_info@@6B@:QWORD			; type_info::`vftable'
EXTRN	?GetRuntimeClass@CDialog@@UBEPAUCRuntimeClass@@XZ:PROC ; CDialog::GetRuntimeClass
EXTRN	??_ECTestDlg@@UAEPAXI@Z:PROC			; CTestDlg::`vector deleting destructor'
EXTRN	?OnCmdMsg@CDialog@@UAEHIHPAXPAUAFX_CMDHANDLERINFO@@@Z:PROC ; CDialog::OnCmdMsg
EXTRN	?OnFinalRelease@CWnd@@UAEXXZ:PROC		; CWnd::OnFinalRelease
EXTRN	?IsInvokeAllowed@CCmdTarget@@UAEHJ@Z:PROC	; CCmdTarget::IsInvokeAllowed
EXTRN	?GetDispatchIID@CCmdTarget@@UAEHPAU_GUID@@@Z:PROC ; CCmdTarget::GetDispatchIID
EXTRN	?GetTypeInfoCount@CCmdTarget@@UAEIXZ:PROC	; CCmdTarget::GetTypeInfoCount
EXTRN	?GetTypeLibCache@CCmdTarget@@UAEPAVCTypeLibCache@@XZ:PROC ; CCmdTarget::GetTypeLibCache
EXTRN	?GetTypeLib@CCmdTarget@@UAEJKPAPAUITypeLib@@@Z:PROC ; CCmdTarget::GetTypeLib
EXTRN	?GetCommandMap@CCmdTarget@@MBEPBUAFX_OLECMDMAP@@XZ:PROC ; CCmdTarget::GetCommandMap
EXTRN	?GetDispatchMap@CCmdTarget@@MBEPBUAFX_DISPMAP@@XZ:PROC ; CCmdTarget::GetDispatchMap
EXTRN	?GetConnectionMap@CCmdTarget@@MBEPBUAFX_CONNECTIONMAP@@XZ:PROC ; CCmdTarget::GetConnectionMap
EXTRN	?GetInterfaceMap@CWnd@@MBEPBUAFX_INTERFACEMAP@@XZ:PROC ; CWnd::GetInterfaceMap
EXTRN	?GetEventSinkMap@CCmdTarget@@MBEPBUAFX_EVENTSINKMAP@@XZ:PROC ; CCmdTarget::GetEventSinkMap
EXTRN	?OnCreateAggregates@CCmdTarget@@UAEHXZ:PROC	; CCmdTarget::OnCreateAggregates
EXTRN	?GetInterfaceHook@CCmdTarget@@UAEPAUIUnknown@@PBX@Z:PROC ; CCmdTarget::GetInterfaceHook
EXTRN	?GetExtraConnectionPoints@CCmdTarget@@MAEHPAVCPtrArray@@@Z:PROC ; CCmdTarget::GetExtraConnectionPoints
EXTRN	?GetConnectionHook@CCmdTarget@@MAEPAUIConnectionPoint@@ABU_GUID@@@Z:PROC ; CCmdTarget::GetConnectionHook
EXTRN	?PreSubclassWindow@CWnd@@UAEXXZ:PROC		; CWnd::PreSubclassWindow
EXTRN	?Create@CWnd@@UAEHPBD0KABUtagRECT@@PAV1@IPAUCCreateContext@@@Z:PROC ; CWnd::Create
EXTRN	?CreateEx@CWnd@@UAEHKPBD0KABUtagRECT@@PAV1@IPAX@Z:PROC ; CWnd::CreateEx
EXTRN	?CreateEx@CWnd@@UAEHKPBD0KHHHHPAUHWND__@@PAUHMENU__@@PAX@Z:PROC ; CWnd::CreateEx
EXTRN	?DestroyWindow@CWnd@@UAEHXZ:PROC		; CWnd::DestroyWindow
EXTRN	?PreCreateWindow@CWnd@@UAEHAAUtagCREATESTRUCTA@@@Z:PROC ; CWnd::PreCreateWindow
EXTRN	?CalcWindowRect@CWnd@@UAEXPAUtagRECT@@I@Z:PROC	; CWnd::CalcWindowRect
EXTRN	?OnToolHitTest@CWnd@@UBEHVCPoint@@PAUtagTOOLINFOA@@@Z:PROC ; CWnd::OnToolHitTest
EXTRN	?GetScrollBarCtrl@CWnd@@UBEPAVCScrollBar@@H@Z:PROC ; CWnd::GetScrollBarCtrl
EXTRN	?WinHelpA@CWnd@@UAEXKI@Z:PROC			; CWnd::WinHelpA
EXTRN	?HtmlHelpA@CWnd@@UAEXKI@Z:PROC			; CWnd::HtmlHelpA
EXTRN	?WinHelpInternal@CWnd@@UAEXKI@Z:PROC		; CWnd::WinHelpInternal
EXTRN	?ContinueModal@CWnd@@UAEHXZ:PROC		; CWnd::ContinueModal
EXTRN	?EndModalLoop@CWnd@@UAEXH@Z:PROC		; CWnd::EndModalLoop
EXTRN	?EnsureStdObj@CWnd@@UAEJXZ:PROC			; CWnd::EnsureStdObj
EXTRN	?get_accParent@CWnd@@UAEJPAPAUIDispatch@@@Z:PROC ; CWnd::get_accParent
EXTRN	?get_accChildCount@CWnd@@UAEJPAJ@Z:PROC		; CWnd::get_accChildCount
EXTRN	?get_accChild@CWnd@@UAEJUtagVARIANT@@PAPAUIDispatch@@@Z:PROC ; CWnd::get_accChild
EXTRN	?get_accName@CWnd@@UAEJUtagVARIANT@@PAPA_W@Z:PROC ; CWnd::get_accName
EXTRN	?get_accValue@CWnd@@UAEJUtagVARIANT@@PAPA_W@Z:PROC ; CWnd::get_accValue
EXTRN	?get_accDescription@CWnd@@UAEJUtagVARIANT@@PAPA_W@Z:PROC ; CWnd::get_accDescription
EXTRN	?get_accRole@CWnd@@UAEJUtagVARIANT@@PAU2@@Z:PROC ; CWnd::get_accRole
EXTRN	?get_accState@CWnd@@UAEJUtagVARIANT@@PAU2@@Z:PROC ; CWnd::get_accState
EXTRN	?get_accHelp@CWnd@@UAEJUtagVARIANT@@PAPA_W@Z:PROC ; CWnd::get_accHelp
EXTRN	?get_accHelpTopic@CWnd@@UAEJPAPA_WUtagVARIANT@@PAJ@Z:PROC ; CWnd::get_accHelpTopic
EXTRN	?get_accKeyboardShortcut@CWnd@@UAEJUtagVARIANT@@PAPA_W@Z:PROC ; CWnd::get_accKeyboardShortcut
EXTRN	?get_accFocus@CWnd@@UAEJPAUtagVARIANT@@@Z:PROC	; CWnd::get_accFocus
EXTRN	?get_accSelection@CWnd@@UAEJPAUtagVARIANT@@@Z:PROC ; CWnd::get_accSelection
EXTRN	?get_accDefaultAction@CWnd@@UAEJUtagVARIANT@@PAPA_W@Z:PROC ; CWnd::get_accDefaultAction
EXTRN	?accSelect@CWnd@@UAEJJUtagVARIANT@@@Z:PROC	; CWnd::accSelect
EXTRN	?accLocation@CWnd@@UAEJPAJ000UtagVARIANT@@@Z:PROC ; CWnd::accLocation
EXTRN	?accNavigate@CWnd@@UAEJJUtagVARIANT@@PAU2@@Z:PROC ; CWnd::accNavigate
EXTRN	?accHitTest@CWnd@@UAEJJJPAUtagVARIANT@@@Z:PROC	; CWnd::accHitTest
EXTRN	?accDoDefaultAction@CWnd@@UAEJUtagVARIANT@@@Z:PROC ; CWnd::accDoDefaultAction
EXTRN	?put_accName@CWnd@@UAEJUtagVARIANT@@PA_W@Z:PROC	; CWnd::put_accName
EXTRN	?put_accValue@CWnd@@UAEJUtagVARIANT@@PA_W@Z:PROC ; CWnd::put_accValue
EXTRN	?SetProxy@CWnd@@UAEJPAUIAccessibleProxy@@@Z:PROC ; CWnd::SetProxy
EXTRN	?CreateAccessibleProxy@CWnd@@UAEJIJPAJ@Z:PROC	; CWnd::CreateAccessibleProxy
EXTRN	?OnCommand@CWnd@@MAEHIJ@Z:PROC			; CWnd::OnCommand
EXTRN	?OnNotify@CWnd@@MAEHIJPAJ@Z:PROC		; CWnd::OnNotify
EXTRN	?GetSuperWndProcAddr@CWnd@@MAEPAP6GJPAUHWND__@@IIJ@ZXZ:PROC ; CWnd::GetSuperWndProcAddr
EXTRN	?PreTranslateMessage@CDialog@@UAEHPAUtagMSG@@@Z:PROC ; CDialog::PreTranslateMessage
EXTRN	?OnAmbientProperty@CWnd@@UAEHPAVCOleControlSite@@JPAUtagVARIANT@@@Z:PROC ; CWnd::OnAmbientProperty
EXTRN	?WindowProc@CWnd@@MAEJIIJ@Z:PROC		; CWnd::WindowProc
EXTRN	?OnWndMsg@CWnd@@MAEHIIJPAJ@Z:PROC		; CWnd::OnWndMsg
EXTRN	?DefWindowProcA@CWnd@@MAEJIIJ@Z:PROC		; CWnd::DefWindowProcA
EXTRN	?PostNcDestroy@CWnd@@MAEXXZ:PROC		; CWnd::PostNcDestroy
EXTRN	?OnChildNotify@CWnd@@MAEHIIJPAJ@Z:PROC		; CWnd::OnChildNotify
EXTRN	?CheckAutoCenter@CDialog@@UAEHXZ:PROC		; CDialog::CheckAutoCenter
EXTRN	?IsFrameWnd@CWnd@@UBEHXZ:PROC			; CWnd::IsFrameWnd
EXTRN	?CreateControlContainer@CWnd@@MAEHPAPAVCOleControlContainer@@@Z:PROC ; CWnd::CreateControlContainer
EXTRN	?CreateControlSite@CWnd@@MAEHPAVCOleControlContainer@@PAPAVCOleControlSite@@IABU_GUID@@@Z:PROC ; CWnd::CreateControlSite
EXTRN	?SetOccDialogInfo@CDialog@@MAEHPAU_AFX_OCC_DIALOG_INFO@@@Z:PROC ; CDialog::SetOccDialogInfo
EXTRN	?GetOccDialogInfo@CDialog@@MAEPAU_AFX_OCC_DIALOG_INFO@@XZ:PROC ; CDialog::GetOccDialogInfo
EXTRN	?Create@CDialog@@UAEHPBDPAVCWnd@@@Z:PROC	; CDialog::Create
EXTRN	?CreateIndirect@CDialog@@UAEHPAXPAVCWnd@@@Z:PROC ; CDialog::CreateIndirect
EXTRN	?CreateIndirect@CDialog@@UAEHPBUDLGTEMPLATE@@PAVCWnd@@PAX@Z:PROC ; CDialog::CreateIndirect
EXTRN	?DoModal@CDialog@@UAEHXZ:PROC			; CDialog::DoModal
EXTRN	?OnInitDialog@CDialog@@UAEHXZ:PROC		; CDialog::OnInitDialog
EXTRN	?OnSetFont@CDialog@@UAEXPAVCFont@@@Z:PROC	; CDialog::OnSetFont
EXTRN	?OnOK@CDialog@@MAEXXZ:PROC			; CDialog::OnOK
EXTRN	?OnCancel@CDialog@@MAEXXZ:PROC			; CDialog::OnCancel
EXTRN	?PreInitDialog@CDialog@@MAEXXZ:PROC		; CDialog::PreInitDialog
;	COMDAT ??_R2CObject@@8
; File d:\sysal2\smarttracker8.5\testdlg.cpp
rdata$r	SEGMENT
??_R2CObject@@8 DD FLAT:??_R1A@?0A@EA@CObject@@8	; CObject::`RTTI Base Class Array'
rdata$r	ENDS
;	COMDAT ??_R3CObject@@8
rdata$r	SEGMENT
??_R3CObject@@8 DD 00H					; CObject::`RTTI Class Hierarchy Descriptor'
	DD	00H
	DD	01H
	DD	FLAT:??_R2CObject@@8
rdata$r	ENDS
;	COMDAT ??_R0?AVCObject@@@8
_DATA	SEGMENT
??_R0?AVCObject@@@8 DD FLAT:??_7type_info@@6B@		; CObject `RTTI Type Descriptor'
	DD	00H
	DB	'.?AVCObject@@', 00H
_DATA	ENDS
;	COMDAT ??_R1A@?0A@EA@CObject@@8
rdata$r	SEGMENT
??_R1A@?0A@EA@CObject@@8 DD FLAT:??_R0?AVCObject@@@8	; CObject::`RTTI Base Class Descriptor at (0,-1,0,64)'
	DD	00H
	DD	00H
	DD	0ffffffffH
	DD	00H
	DD	040H
	DD	FLAT:??_R3CObject@@8
rdata$r	ENDS
;	COMDAT ??_R2CCmdTarget@@8
rdata$r	SEGMENT
??_R2CCmdTarget@@8 DD FLAT:??_R1A@?0A@EA@CCmdTarget@@8	; CCmdTarget::`RTTI Base Class Array'
	DD	FLAT:??_R1A@?0A@EA@CObject@@8
rdata$r	ENDS
;	COMDAT ??_R3CCmdTarget@@8
rdata$r	SEGMENT
??_R3CCmdTarget@@8 DD 00H				; CCmdTarget::`RTTI Class Hierarchy Descriptor'
	DD	00H
	DD	02H
	DD	FLAT:??_R2CCmdTarget@@8
rdata$r	ENDS
;	COMDAT ??_R0?AVCCmdTarget@@@8
_DATA	SEGMENT
??_R0?AVCCmdTarget@@@8 DD FLAT:??_7type_info@@6B@	; CCmdTarget `RTTI Type Descriptor'
	DD	00H
	DB	'.?AVCCmdTarget@@', 00H
_DATA	ENDS
;	COMDAT ??_R1A@?0A@EA@CCmdTarget@@8
rdata$r	SEGMENT
??_R1A@?0A@EA@CCmdTarget@@8 DD FLAT:??_R0?AVCCmdTarget@@@8 ; CCmdTarget::`RTTI Base Class Descriptor at (0,-1,0,64)'
	DD	01H
	DD	00H
	DD	0ffffffffH
	DD	00H
	DD	040H
	DD	FLAT:??_R3CCmdTarget@@8
rdata$r	ENDS
;	COMDAT ??_R2CWnd@@8
rdata$r	SEGMENT
??_R2CWnd@@8 DD	FLAT:??_R1A@?0A@EA@CWnd@@8		; CWnd::`RTTI Base Class Array'
	DD	FLAT:??_R1A@?0A@EA@CCmdTarget@@8
	DD	FLAT:??_R1A@?0A@EA@CObject@@8
rdata$r	ENDS
;	COMDAT ??_R3CWnd@@8
rdata$r	SEGMENT
??_R3CWnd@@8 DD	00H					; CWnd::`RTTI Class Hierarchy Descriptor'
	DD	00H
	DD	03H
	DD	FLAT:??_R2CWnd@@8
rdata$r	ENDS
;	COMDAT ??_R0?AVCWnd@@@8
_DATA	SEGMENT
??_R0?AVCWnd@@@8 DD FLAT:??_7type_info@@6B@		; CWnd `RTTI Type Descriptor'
	DD	00H
	DB	'.?AVCWnd@@', 00H
_DATA	ENDS
;	COMDAT ??_R1A@?0A@EA@CWnd@@8
rdata$r	SEGMENT
??_R1A@?0A@EA@CWnd@@8 DD FLAT:??_R0?AVCWnd@@@8		; CWnd::`RTTI Base Class Descriptor at (0,-1,0,64)'
	DD	02H
	DD	00H
	DD	0ffffffffH
	DD	00H
	DD	040H
	DD	FLAT:??_R3CWnd@@8
rdata$r	ENDS
;	COMDAT ??_R2CDialog@@8
rdata$r	SEGMENT
??_R2CDialog@@8 DD FLAT:??_R1A@?0A@EA@CDialog@@8	; CDialog::`RTTI Base Class Array'
	DD	FLAT:??_R1A@?0A@EA@CWnd@@8
	DD	FLAT:??_R1A@?0A@EA@CCmdTarget@@8
	DD	FLAT:??_R1A@?0A@EA@CObject@@8
rdata$r	ENDS
;	COMDAT ??_R3CDialog@@8
rdata$r	SEGMENT
??_R3CDialog@@8 DD 00H					; CDialog::`RTTI Class Hierarchy Descriptor'
	DD	00H
	DD	04H
	DD	FLAT:??_R2CDialog@@8
rdata$r	ENDS
;	COMDAT ??_R0?AVCDialog@@@8
_DATA	SEGMENT
??_R0?AVCDialog@@@8 DD FLAT:??_7type_info@@6B@		; CDialog `RTTI Type Descriptor'
	DD	00H
	DB	'.?AVCDialog@@', 00H
_DATA	ENDS
;	COMDAT ??_R1A@?0A@EA@CDialog@@8
rdata$r	SEGMENT
??_R1A@?0A@EA@CDialog@@8 DD FLAT:??_R0?AVCDialog@@@8	; CDialog::`RTTI Base Class Descriptor at (0,-1,0,64)'
	DD	03H
	DD	00H
	DD	0ffffffffH
	DD	00H
	DD	040H
	DD	FLAT:??_R3CDialog@@8
rdata$r	ENDS
;	COMDAT ??_R1A@?0A@EA@CTestDlg@@8
rdata$r	SEGMENT
??_R1A@?0A@EA@CTestDlg@@8 DD FLAT:??_R0?AVCTestDlg@@@8	; CTestDlg::`RTTI Base Class Descriptor at (0,-1,0,64)'
	DD	04H
	DD	00H
	DD	0ffffffffH
	DD	00H
	DD	040H
	DD	FLAT:??_R3CTestDlg@@8
rdata$r	ENDS
;	COMDAT ??_R2CTestDlg@@8
rdata$r	SEGMENT
??_R2CTestDlg@@8 DD FLAT:??_R1A@?0A@EA@CTestDlg@@8	; CTestDlg::`RTTI Base Class Array'
	DD	FLAT:??_R1A@?0A@EA@CDialog@@8
	DD	FLAT:??_R1A@?0A@EA@CWnd@@8
	DD	FLAT:??_R1A@?0A@EA@CCmdTarget@@8
	DD	FLAT:??_R1A@?0A@EA@CObject@@8
rdata$r	ENDS
;	COMDAT ??_R3CTestDlg@@8
rdata$r	SEGMENT
??_R3CTestDlg@@8 DD 00H					; CTestDlg::`RTTI Class Hierarchy Descriptor'
	DD	00H
	DD	05H
	DD	FLAT:??_R2CTestDlg@@8
rdata$r	ENDS
;	COMDAT ??_R0?AVCTestDlg@@@8
_DATA	SEGMENT
??_R0?AVCTestDlg@@@8 DD FLAT:??_7type_info@@6B@		; CTestDlg `RTTI Type Descriptor'
	DD	00H
	DB	'.?AVCTestDlg@@', 00H
_DATA	ENDS
;	COMDAT ??_R4CTestDlg@@6B@
rdata$r	SEGMENT
??_R4CTestDlg@@6B@ DD 00H				; CTestDlg::`RTTI Complete Object Locator'
	DD	00H
	DD	00H
	DD	FLAT:??_R0?AVCTestDlg@@@8
	DD	FLAT:??_R3CTestDlg@@8
rdata$r	ENDS
;	COMDAT ??_C@_00CNPNBAHC@?$AA@
CONST	SEGMENT
??_C@_00CNPNBAHC@?$AA@ DB 00H				; `string'
CONST	ENDS
;	COMDAT ??_7CTestDlg@@6B@
CONST	SEGMENT
??_7CTestDlg@@6B@ DD FLAT:??_R4CTestDlg@@6B@		; CTestDlg::`vftable'
	DD	FLAT:?GetRuntimeClass@CDialog@@UBEPAUCRuntimeClass@@XZ
	DD	FLAT:??_ECTestDlg@@UAEPAXI@Z
	DD	FLAT:?Serialize@CObject@@UAEXAAVCArchive@@@Z
	DD	FLAT:?AssertValid@CObject@@UBEXXZ
	DD	FLAT:?Dump@CObject@@UBEXAAVCDumpContext@@@Z
	DD	FLAT:?OnCmdMsg@CDialog@@UAEHIHPAXPAUAFX_CMDHANDLERINFO@@@Z
	DD	FLAT:?OnFinalRelease@CWnd@@UAEXXZ
	DD	FLAT:?IsInvokeAllowed@CCmdTarget@@UAEHJ@Z
	DD	FLAT:?GetDispatchIID@CCmdTarget@@UAEHPAU_GUID@@@Z
	DD	FLAT:?GetTypeInfoCount@CCmdTarget@@UAEIXZ
	DD	FLAT:?GetTypeLibCache@CCmdTarget@@UAEPAVCTypeLibCache@@XZ
	DD	FLAT:?GetTypeLib@CCmdTarget@@UAEJKPAPAUITypeLib@@@Z
	DD	FLAT:?GetMessageMap@CTestDlg@@MBEPBUAFX_MSGMAP@@XZ
	DD	FLAT:?GetCommandMap@CCmdTarget@@MBEPBUAFX_OLECMDMAP@@XZ
	DD	FLAT:?GetDispatchMap@CCmdTarget@@MBEPBUAFX_DISPMAP@@XZ
	DD	FLAT:?GetConnectionMap@CCmdTarget@@MBEPBUAFX_CONNECTIONMAP@@XZ
	DD	FLAT:?GetInterfaceMap@CWnd@@MBEPBUAFX_INTERFACEMAP@@XZ
	DD	FLAT:?GetEventSinkMap@CCmdTarget@@MBEPBUAFX_EVENTSINKMAP@@XZ
	DD	FLAT:?OnCreateAggregates@CCmdTarget@@UAEHXZ
	DD	FLAT:?GetInterfaceHook@CCmdTarget@@UAEPAUIUnknown@@PBX@Z
	DD	FLAT:?GetExtraConnectionPoints@CCmdTarget@@MAEHPAVCPtrArray@@@Z
	DD	FLAT:?GetConnectionHook@CCmdTarget@@MAEPAUIConnectionPoint@@ABU_GUID@@@Z
	DD	FLAT:?PreSubclassWindow@CWnd@@UAEXXZ
	DD	FLAT:?Create@CWnd@@UAEHPBD0KABUtagRECT@@PAV1@IPAUCCreateContext@@@Z
	DD	FLAT:?CreateEx@CWnd@@UAEHKPBD0KABUtagRECT@@PAV1@IPAX@Z
	DD	FLAT:?CreateEx@CWnd@@UAEHKPBD0KHHHHPAUHWND__@@PAUHMENU__@@PAX@Z
	DD	FLAT:?DestroyWindow@CWnd@@UAEHXZ
	DD	FLAT:?PreCreateWindow@CWnd@@UAEHAAUtagCREATESTRUCTA@@@Z
	DD	FLAT:?CalcWindowRect@CWnd@@UAEXPAUtagRECT@@I@Z
	DD	FLAT:?OnToolHitTest@CWnd@@UBEHVCPoint@@PAUtagTOOLINFOA@@@Z
	DD	FLAT:?GetScrollBarCtrl@CWnd@@UBEPAVCScrollBar@@H@Z
	DD	FLAT:?WinHelpA@CWnd@@UAEXKI@Z
	DD	FLAT:?HtmlHelpA@CWnd@@UAEXKI@Z
	DD	FLAT:?WinHelpInternal@CWnd@@UAEXKI@Z
	DD	FLAT:?ContinueModal@CWnd@@UAEHXZ
	DD	FLAT:?EndModalLoop@CWnd@@UAEXH@Z
	DD	FLAT:?EnsureStdObj@CWnd@@UAEJXZ
	DD	FLAT:?get_accParent@CWnd@@UAEJPAPAUIDispatch@@@Z
	DD	FLAT:?get_accChildCount@CWnd@@UAEJPAJ@Z
	DD	FLAT:?get_accChild@CWnd@@UAEJUtagVARIANT@@PAPAUIDispatch@@@Z
	DD	FLAT:?get_accName@CWnd@@UAEJUtagVARIANT@@PAPA_W@Z
	DD	FLAT:?get_accValue@CWnd@@UAEJUtagVARIANT@@PAPA_W@Z
	DD	FLAT:?get_accDescription@CWnd@@UAEJUtagVARIANT@@PAPA_W@Z
	DD	FLAT:?get_accRole@CWnd@@UAEJUtagVARIANT@@PAU2@@Z
	DD	FLAT:?get_accState@CWnd@@UAEJUtagVARIANT@@PAU2@@Z
	DD	FLAT:?get_accHelp@CWnd@@UAEJUtagVARIANT@@PAPA_W@Z
	DD	FLAT:?get_accHelpTopic@CWnd@@UAEJPAPA_WUtagVARIANT@@PAJ@Z
	DD	FLAT:?get_accKeyboardShortcut@CWnd@@UAEJUtagVARIANT@@PAPA_W@Z
	DD	FLAT:?get_accFocus@CWnd@@UAEJPAUtagVARIANT@@@Z
	DD	FLAT:?get_accSelection@CWnd@@UAEJPAUtagVARIANT@@@Z
	DD	FLAT:?get_accDefaultAction@CWnd@@UAEJUtagVARIANT@@PAPA_W@Z
	DD	FLAT:?accSelect@CWnd@@UAEJJUtagVARIANT@@@Z
	DD	FLAT:?accLocation@CWnd@@UAEJPAJ000UtagVARIANT@@@Z
	DD	FLAT:?accNavigate@CWnd@@UAEJJUtagVARIANT@@PAU2@@Z
	DD	FLAT:?accHitTest@CWnd@@UAEJJJPAUtagVARIANT@@@Z
	DD	FLAT:?accDoDefaultAction@CWnd@@UAEJUtagVARIANT@@@Z
	DD	FLAT:?put_accName@CWnd@@UAEJUtagVARIANT@@PA_W@Z
	DD	FLAT:?put_accValue@CWnd@@UAEJUtagVARIANT@@PA_W@Z
	DD	FLAT:?SetProxy@CWnd@@UAEJPAUIAccessibleProxy@@@Z
	DD	FLAT:?CreateAccessibleProxy@CWnd@@UAEJIJPAJ@Z
	DD	FLAT:?OnCommand@CWnd@@MAEHIJ@Z
	DD	FLAT:?OnNotify@CWnd@@MAEHIJPAJ@Z
	DD	FLAT:?GetSuperWndProcAddr@CWnd@@MAEPAP6GJPAUHWND__@@IIJ@ZXZ
	DD	FLAT:?DoDataExchange@CTestDlg@@MAEXPAVCDataExchange@@@Z
	DD	FLAT:?BeginModalState@CWnd@@UAEXXZ
	DD	FLAT:?EndModalState@CWnd@@UAEXXZ
	DD	FLAT:?PreTranslateMessage@CDialog@@UAEHPAUtagMSG@@@Z
	DD	FLAT:?OnAmbientProperty@CWnd@@UAEHPAVCOleControlSite@@JPAUtagVARIANT@@@Z
	DD	FLAT:?WindowProc@CWnd@@MAEJIIJ@Z
	DD	FLAT:?OnWndMsg@CWnd@@MAEHIIJPAJ@Z
	DD	FLAT:?DefWindowProcA@CWnd@@MAEJIIJ@Z
	DD	FLAT:?PostNcDestroy@CWnd@@MAEXXZ
	DD	FLAT:?OnChildNotify@CWnd@@MAEHIIJPAJ@Z
	DD	FLAT:?CheckAutoCenter@CDialog@@UAEHXZ
	DD	FLAT:?IsFrameWnd@CWnd@@UBEHXZ
	DD	FLAT:?CreateControlContainer@CWnd@@MAEHPAPAVCOleControlContainer@@@Z
	DD	FLAT:?CreateControlSite@CWnd@@MAEHPAVCOleControlContainer@@PAPAVCOleControlSite@@IABU_GUID@@@Z
	DD	FLAT:?SetOccDialogInfo@CDialog@@MAEHPAU_AFX_OCC_DIALOG_INFO@@@Z
	DD	FLAT:?GetOccDialogInfo@CDialog@@MAEPAU_AFX_OCC_DIALOG_INFO@@XZ
	DD	FLAT:?Create@CDialog@@UAEHIPAVCWnd@@@Z
	DD	FLAT:?Create@CDialog@@UAEHPBDPAVCWnd@@@Z
	DD	FLAT:?CreateIndirect@CDialog@@UAEHPAXPAVCWnd@@@Z
	DD	FLAT:?CreateIndirect@CDialog@@UAEHPBUDLGTEMPLATE@@PAVCWnd@@PAX@Z
	DD	FLAT:?DoModal@CDialog@@UAEHXZ
	DD	FLAT:?OnInitDialog@CDialog@@UAEHXZ
	DD	FLAT:?OnSetFont@CDialog@@UAEXPAVCFont@@@Z
	DD	FLAT:?OnOK@CDialog@@MAEXXZ
	DD	FLAT:?OnCancel@CDialog@@MAEXXZ
	DD	FLAT:?PreInitDialog@CDialog@@MAEXXZ
CONST	ENDS
;	COMDAT xdata$x
xdata$x	SEGMENT
__unwindtable$??0CTestDlg@@QAE@PAVCSmartTrackerClass@@PAVCWnd@@@Z DD 0ffffffffH
	DD	FLAT:__unwindfunclet$??0CTestDlg@@QAE@PAVCSmartTrackerClass@@PAVCWnd@@@Z$0
	DD	00H
	DD	FLAT:__unwindfunclet$??0CTestDlg@@QAE@PAVCSmartTrackerClass@@PAVCWnd@@@Z$1
	DD	01H
	DD	FLAT:__unwindfunclet$??0CTestDlg@@QAE@PAVCSmartTrackerClass@@PAVCWnd@@@Z$2
__ehfuncinfo$??0CTestDlg@@QAE@PAVCSmartTrackerClass@@PAVCWnd@@@Z DD 019930522H
	DD	03H
	DD	FLAT:__unwindtable$??0CTestDlg@@QAE@PAVCSmartTrackerClass@@PAVCWnd@@@Z
	DD	2 DUP(00H)
	DD	2 DUP(00H)
	DD	00H
	DD	01H
; Function compile flags: /Ogtpy
xdata$x	ENDS
;	COMDAT ??0CTestDlg@@QAE@PAVCSmartTrackerClass@@PAVCWnd@@@Z
_TEXT	SEGMENT
_this$ = -16						; size = 4
__$EHRec$ = -12						; size = 12
_ptk$ = 8						; size = 4
_pParent$ = 12						; size = 4
??0CTestDlg@@QAE@PAVCSmartTrackerClass@@PAVCWnd@@@Z PROC ; CTestDlg::CTestDlg, COMDAT
; _this$ = ecx

; 24   : {

	push	-1
	push	__ehhandler$??0CTestDlg@@QAE@PAVCSmartTrackerClass@@PAVCWnd@@@Z
	mov	eax, DWORD PTR fs:0
	push	eax
	push	ecx
	push	ebx
	push	esi
	push	edi
	mov	eax, DWORD PTR ___security_cookie
	xor	eax, esp
	push	eax
	lea	eax, DWORD PTR __$EHRec$[esp+32]
	mov	DWORD PTR fs:0, eax
	mov	esi, ecx
	mov	DWORD PTR _this$[esp+32], esi
	mov	eax, DWORD PTR _pParent$[esp+28]
	push	eax
	push	205					; 000000cdH
	call	??0CDialog@@QAE@IPAVCWnd@@@Z		; CDialog::CDialog
	lea	edi, DWORD PTR [esi+116]
	mov	ecx, edi
	mov	DWORD PTR __$EHRec$[esp+40], 0
	mov	DWORD PTR [esi], OFFSET ??_7CTestDlg@@6B@
	call	DWORD PTR __imp_??0?$CStringT@DV?$StrTraitMFC_DLL@DV?$ChTraitsCRT@D@ATL@@@@@ATL@@QAE@XZ
	lea	ebx, DWORD PTR [esi+128]
	mov	ecx, ebx
	call	DWORD PTR __imp_??0?$CStringT@DV?$StrTraitMFC_DLL@DV?$ChTraitsCRT@D@ATL@@@@@ATL@@QAE@XZ
	mov	ecx, DWORD PTR _ptk$[esp+28]
	mov	DWORD PTR [esi+136], ecx

; 25   : 	//{{AFX_DATA_INIT(CTestDlg)
; 26   : 	m_DataFile = _T("");

	push	OFFSET ??_C@_00CNPNBAHC@?$AA@
	mov	ecx, edi
	mov	BYTE PTR __$EHRec$[esp+44], 2
	mov	DWORD PTR [esi+140], 0
	call	DWORD PTR __imp_??4?$CStringT@DV?$StrTraitMFC_DLL@DV?$ChTraitsCRT@D@ATL@@@@@ATL@@QAEAAV01@PBD@Z

; 27   : 	m_Cycles = 100;
; 28   : 	m_MaxTracks = 10000;
; 29   : 	m_Time = _T("");

	push	OFFSET ??_C@_00CNPNBAHC@?$AA@
	mov	ecx, ebx
	mov	DWORD PTR [esi+120], 100		; 00000064H
	mov	DWORD PTR [esi+124], 10000		; 00002710H
	call	DWORD PTR __imp_??4?$CStringT@DV?$StrTraitMFC_DLL@DV?$ChTraitsCRT@D@ATL@@@@@ATL@@QAEAAV01@PBD@Z

; 30   : 	m_TracksFound = 0;

	mov	DWORD PTR [esi+132], 0

; 31   : 	//}}AFX_DATA_INIT
; 32   : }

	mov	eax, esi
	mov	ecx, DWORD PTR __$EHRec$[esp+32]
	mov	DWORD PTR fs:0, ecx
	pop	ecx
	pop	edi
	pop	esi
	pop	ebx
	add	esp, 16					; 00000010H
	ret	8
_TEXT	ENDS
;	COMDAT text$x
text$x	SEGMENT
__unwindfunclet$??0CTestDlg@@QAE@PAVCSmartTrackerClass@@PAVCWnd@@@Z$0:
	mov	ecx, DWORD PTR _this$[ebp]
	jmp	??1CDialog@@UAE@XZ			; CDialog::~CDialog
__unwindfunclet$??0CTestDlg@@QAE@PAVCSmartTrackerClass@@PAVCWnd@@@Z$1:
	mov	ecx, DWORD PTR _this$[ebp]
	add	ecx, 116				; 00000074H
	jmp	DWORD PTR __imp_??1?$CStringT@DV?$StrTraitMFC_DLL@DV?$ChTraitsCRT@D@ATL@@@@@ATL@@QAE@XZ
__unwindfunclet$??0CTestDlg@@QAE@PAVCSmartTrackerClass@@PAVCWnd@@@Z$2:
	mov	ecx, DWORD PTR _this$[ebp]
	add	ecx, 128				; 00000080H
	jmp	DWORD PTR __imp_??1?$CStringT@DV?$StrTraitMFC_DLL@DV?$ChTraitsCRT@D@ATL@@@@@ATL@@QAE@XZ
__ehhandler$??0CTestDlg@@QAE@PAVCSmartTrackerClass@@PAVCWnd@@@Z:
	mov	edx, DWORD PTR [esp+8]
	lea	eax, DWORD PTR [edx-16]
	mov	ecx, DWORD PTR [edx-20]
	xor	ecx, eax
	call	@__security_check_cookie@4
	mov	eax, OFFSET __ehfuncinfo$??0CTestDlg@@QAE@PAVCSmartTrackerClass@@PAVCWnd@@@Z
	jmp	___CxxFrameHandler3
text$x	ENDS
??0CTestDlg@@QAE@PAVCSmartTrackerClass@@PAVCWnd@@@Z ENDP ; CTestDlg::CTestDlg
PUBLIC	??1CTestDlg@@UAE@XZ				; CTestDlg::~CTestDlg
; Function compile flags: /Ogtpy
;	COMDAT ??1CTestDlg@@UAE@XZ
_TEXT	SEGMENT
??1CTestDlg@@UAE@XZ PROC				; CTestDlg::~CTestDlg, COMDAT
; _this$ = ecx
	push	esi
	mov	esi, ecx
	lea	ecx, DWORD PTR [esi+128]
	call	DWORD PTR __imp_??1?$CStringT@DV?$StrTraitMFC_DLL@DV?$ChTraitsCRT@D@ATL@@@@@ATL@@QAE@XZ
	lea	ecx, DWORD PTR [esi+116]
	call	DWORD PTR __imp_??1?$CStringT@DV?$StrTraitMFC_DLL@DV?$ChTraitsCRT@D@ATL@@@@@ATL@@QAE@XZ
	mov	ecx, esi
	pop	esi
	jmp	??1CDialog@@UAE@XZ			; CDialog::~CDialog
??1CTestDlg@@UAE@XZ ENDP				; CTestDlg::~CTestDlg
_TEXT	ENDS
PUBLIC	??_C@_03CLFHJCDC@txt?$AA@			; `string'
PUBLIC	??_C@_0DA@EELAIONL@Text?5files?5?$CI?$CK?4txt?$CJ?$HM?$CK?4txt?$HMAll?5fil@ ; `string'
PUBLIC	__$ArrayPad$
PUBLIC	?OnSelFile@CTestDlg@@IAEXXZ			; CTestDlg::OnSelFile
EXTRN	??1CFileDialog@@UAE@XZ:PROC			; CFileDialog::~CFileDialog
EXTRN	__imp_??4?$CStringT@DV?$StrTraitMFC_DLL@DV?$ChTraitsCRT@D@ATL@@@@@ATL@@QAEAAV01@ABV01@@Z:PROC
EXTRN	?GetPathName@CFileDialog@@QBE?AV?$CStringT@DV?$StrTraitMFC_DLL@DV?$ChTraitsCRT@D@ATL@@@@@ATL@@XZ:PROC ; CFileDialog::GetPathName
EXTRN	?DoModal@CFileDialog@@UAEHXZ:PROC		; CFileDialog::DoModal
EXTRN	??0CFileDialog@@QAE@HPBD0K0PAVCWnd@@K@Z:PROC	; CFileDialog::CFileDialog
EXTRN	__imp_??B?$CSimpleStringT@D$00@ATL@@QBEPBDXZ:PROC
EXTRN	?UpdateData@CWnd@@QAEHH@Z:PROC			; CWnd::UpdateData
;	COMDAT ??_C@_03CLFHJCDC@txt?$AA@
CONST	SEGMENT
??_C@_03CLFHJCDC@txt?$AA@ DB 'txt', 00H			; `string'
CONST	ENDS
;	COMDAT ??_C@_0DA@EELAIONL@Text?5files?5?$CI?$CK?4txt?$CJ?$HM?$CK?4txt?$HMAll?5fil@
CONST	SEGMENT
??_C@_0DA@EELAIONL@Text?5files?5?$CI?$CK?4txt?$CJ?$HM?$CK?4txt?$HMAll?5fil@ DB 'T'
	DB	'ext files (*.txt)|*.txt|All files (*.*)|*.*|||', 00H ; `string'
CONST	ENDS
;	COMDAT xdata$x
xdata$x	SEGMENT
__unwindtable$?OnSelFile@CTestDlg@@IAEXXZ DD 0ffffffffH
	DD	FLAT:__unwindfunclet$?OnSelFile@CTestDlg@@IAEXXZ$0
	DD	00H
	DD	FLAT:__unwindfunclet$?OnSelFile@CTestDlg@@IAEXXZ$1
__ehfuncinfo$?OnSelFile@CTestDlg@@IAEXXZ DD 019930522H
	DD	02H
	DD	FLAT:__unwindtable$?OnSelFile@CTestDlg@@IAEXXZ
	DD	2 DUP(00H)
	DD	2 DUP(00H)
	DD	00H
	DD	01H
; Function compile flags: /Ogtpy
xdata$x	ENDS
;	COMDAT ?OnSelFile@CTestDlg@@IAEXXZ
_TEXT	SEGMENT
$T126370 = -476						; size = 4
_MyDlg$ = -472						; size = 456
__$ArrayPad$ = -16					; size = 4
__$EHRec$ = -12						; size = 12
?OnSelFile@CTestDlg@@IAEXXZ PROC			; CTestDlg::OnSelFile, COMDAT
; _this$ = ecx

; 115  : {

	push	-1
	push	__ehhandler$?OnSelFile@CTestDlg@@IAEXXZ
	mov	eax, DWORD PTR fs:0
	push	eax
	sub	esp, 464				; 000001d0H
	mov	eax, DWORD PTR ___security_cookie
	xor	eax, esp
	mov	DWORD PTR __$ArrayPad$[esp+476], eax
	push	esi
	push	edi
	mov	eax, DWORD PTR ___security_cookie
	xor	eax, esp
	push	eax
	lea	eax, DWORD PTR __$EHRec$[esp+488]
	mov	DWORD PTR fs:0, eax

; 116  : 	// TODO: Add your control notification handler code here
; 117  : 	UpdateData();

	push	1
	mov	esi, ecx
	call	?UpdateData@CWnd@@QAEHH@Z		; CWnd::UpdateData

; 118  : 	CFileDialog MyDlg(TRUE, "txt", m_DataFile, OFN_FILEMUSTEXIST, "Text files (*.txt)|*.txt|All files (*.*)|*.*|||", this);

	push	0
	push	esi
	push	OFFSET ??_C@_0DA@EELAIONL@Text?5files?5?$CI?$CK?4txt?$CJ?$HM?$CK?4txt?$HMAll?5fil@
	lea	edi, DWORD PTR [esi+116]
	push	4096					; 00001000H
	mov	ecx, edi
	call	DWORD PTR __imp_??B?$CSimpleStringT@D$00@ATL@@QBEPBDXZ
	push	eax
	push	OFFSET ??_C@_03CLFHJCDC@txt?$AA@
	push	1
	lea	ecx, DWORD PTR _MyDlg$[esp+516]
	call	??0CFileDialog@@QAE@HPBD0K0PAVCWnd@@K@Z	; CFileDialog::CFileDialog

; 119  : 	if (MyDlg.DoModal() == IDOK)

	lea	ecx, DWORD PTR _MyDlg$[esp+488]
	mov	DWORD PTR __$EHRec$[esp+496], 0
	call	?DoModal@CFileDialog@@UAEHXZ		; CFileDialog::DoModal
	cmp	eax, 1
	jne	SHORT $LN1@OnSelFile

; 120  : 	{
; 121  : 		m_DataFile = MyDlg.GetPathName();

	lea	eax, DWORD PTR $T126370[esp+488]
	push	eax
	lea	ecx, DWORD PTR _MyDlg$[esp+492]
	call	?GetPathName@CFileDialog@@QBE?AV?$CStringT@DV?$StrTraitMFC_DLL@DV?$ChTraitsCRT@D@ATL@@@@@ATL@@XZ ; CFileDialog::GetPathName
	push	eax
	mov	ecx, edi
	mov	BYTE PTR __$EHRec$[esp+500], 1
	call	DWORD PTR __imp_??4?$CStringT@DV?$StrTraitMFC_DLL@DV?$ChTraitsCRT@D@ATL@@@@@ATL@@QAEAAV01@ABV01@@Z
	lea	ecx, DWORD PTR $T126370[esp+488]
	mov	BYTE PTR __$EHRec$[esp+496], 0
	call	DWORD PTR __imp_??1?$CStringT@DV?$StrTraitMFC_DLL@DV?$ChTraitsCRT@D@ATL@@@@@ATL@@QAE@XZ

; 122  : 		UpdateData(FALSE);

	push	0
	mov	ecx, esi
	call	?UpdateData@CWnd@@QAEHH@Z		; CWnd::UpdateData
$LN1@OnSelFile:

; 123  : 		}
; 124  : }

	lea	ecx, DWORD PTR _MyDlg$[esp+488]
	mov	DWORD PTR __$EHRec$[esp+496], -1
	call	??1CFileDialog@@UAE@XZ			; CFileDialog::~CFileDialog
	mov	ecx, DWORD PTR __$EHRec$[esp+488]
	mov	DWORD PTR fs:0, ecx
	pop	ecx
	pop	edi
	pop	esi
	mov	ecx, DWORD PTR __$ArrayPad$[esp+476]
	xor	ecx, esp
	call	@__security_check_cookie@4
	add	esp, 476				; 000001dcH
	ret	0
_TEXT	ENDS
;	COMDAT text$x
text$x	SEGMENT
__unwindfunclet$?OnSelFile@CTestDlg@@IAEXXZ$0:
	lea	ecx, DWORD PTR _MyDlg$[ebp]
	jmp	??1CFileDialog@@UAE@XZ			; CFileDialog::~CFileDialog
__unwindfunclet$?OnSelFile@CTestDlg@@IAEXXZ$1:
	lea	ecx, DWORD PTR $T126370[ebp]
	jmp	DWORD PTR __imp_??1?$CStringT@DV?$StrTraitMFC_DLL@DV?$ChTraitsCRT@D@ATL@@@@@ATL@@QAE@XZ
__ehhandler$?OnSelFile@CTestDlg@@IAEXXZ:
	mov	edx, DWORD PTR [esp+8]
	lea	eax, DWORD PTR [edx-472]
	mov	ecx, DWORD PTR [edx-476]
	xor	ecx, eax
	call	@__security_check_cookie@4
	add	eax, 8
	mov	ecx, DWORD PTR [edx-4]
	xor	ecx, eax
	call	@__security_check_cookie@4
	mov	eax, OFFSET __ehfuncinfo$?OnSelFile@CTestDlg@@IAEXXZ
	jmp	___CxxFrameHandler3
text$x	ENDS
?OnSelFile@CTestDlg@@IAEXXZ ENDP			; CTestDlg::OnSelFile
PUBLIC	??_C@_02DPKJAMEF@?$CFd?$AA@			; `string'
PUBLIC	??_C@_0CH@FIANBLJA@Can?8t?5allocate?5memory?5space?5for?5@ ; `string'
PUBLIC	??_C@_0N@OALDFIAI@Memory?5Error?$AA@		; `string'
PUBLIC	?OnTest@CTestDlg@@IAEXXZ			; CTestDlg::OnTest
EXTRN	__imp__GlobalFree@4:PROC
EXTRN	__imp_?Format@?$CStringT@DV?$StrTraitMFC_DLL@DV?$ChTraitsCRT@D@ATL@@@@@ATL@@QAAXPBDZZ:PROC
EXTRN	__imp__GetTickCount@0:PROC
EXTRN	?MessageBoxA@CWnd@@QAEHPBD0I@Z:PROC		; CWnd::MessageBoxA
EXTRN	__imp__GlobalAlloc@8:PROC
;	COMDAT ??_C@_02DPKJAMEF@?$CFd?$AA@
CONST	SEGMENT
??_C@_02DPKJAMEF@?$CFd?$AA@ DB '%d', 00H		; `string'
CONST	ENDS
;	COMDAT ??_C@_0CH@FIANBLJA@Can?8t?5allocate?5memory?5space?5for?5@
CONST	SEGMENT
??_C@_0CH@FIANBLJA@Can?8t?5allocate?5memory?5space?5for?5@ DB 'Can''t all'
	DB	'ocate memory space for tracks', 00H		; `string'
CONST	ENDS
;	COMDAT ??_C@_0N@OALDFIAI@Memory?5Error?$AA@
CONST	SEGMENT
??_C@_0N@OALDFIAI@Memory?5Error?$AA@ DB 'Memory Error', 00H ; `string'
; Function compile flags: /Ogtpy
CONST	ENDS
;	COMDAT ?OnTest@CTestDlg@@IAEXXZ
_TEXT	SEGMENT
_totaltracks$ = -8					; size = 4
_time$ = -4						; size = 4
?OnTest@CTestDlg@@IAEXXZ PROC				; CTestDlg::OnTest, COMDAT
; _this$ = ecx

; 127  : {

	sub	esp, 8
	push	ebx
	push	esi

; 128  : 	// TODO: Add your control notification handler code here
; 129  : 	UpdateData();

	push	1
	mov	esi, ecx
	call	?UpdateData@CWnd@@QAEHH@Z		; CWnd::UpdateData

; 130  : 	Track2 *pTracks = (Track2 *)GlobalAlloc(GMEM_FIXED, (sizeof(Track2) + Layers * sizeof(Grain)) * m_MaxTracks);

	mov	eax, DWORD PTR [esi+140]
	shl	eax, 4
	add	eax, 60					; 0000003cH
	imul	eax, DWORD PTR [esi+124]
	push	eax
	push	0
	call	DWORD PTR __imp__GlobalAlloc@8
	mov	ebx, eax

; 131  : 	if (pTracks == 0)

	test	ebx, ebx
	jne	SHORT $LN7@OnTest

; 132  : 	{
; 133  : 		MessageBox("Can't allocate memory space for tracks", "Memory Error", MB_ICONERROR | MB_OK);

	push	16					; 00000010H
	push	OFFSET ??_C@_0N@OALDFIAI@Memory?5Error?$AA@
	push	OFFSET ??_C@_0CH@FIANBLJA@Can?8t?5allocate?5memory?5space?5for?5@
	mov	ecx, esi
	call	?MessageBoxA@CWnd@@QAEHPBD0I@Z		; CWnd::MessageBoxA
	pop	esi
	pop	ebx

; 153  : }

	add	esp, 8
	ret	0
$LN7@OnTest:

; 134  : 		return;
; 135  : 		}
; 136  : 	int totaltracks;
; 137  : 	int time;
; 138  : 	int i;
; 139  : 	Grain *pGrains = (Grain *)(void *)((char *)(pTracks + m_MaxTracks));

	mov	ecx, DWORD PTR [esi+124]
	mov	edx, ecx
	shl	edx, 4
	sub	edx, ecx
	push	ebp

; 140  : 	for (i = 0; i < m_MaxTracks; i++)

	xor	eax, eax
	test	ecx, ecx
	push	edi
	lea	edx, DWORD PTR [ebx+edx*4]
	jbe	SHORT $LN4@OnTest

; 134  : 		return;
; 135  : 		}
; 136  : 	int totaltracks;
; 137  : 	int time;
; 138  : 	int i;
; 139  : 	Grain *pGrains = (Grain *)(void *)((char *)(pTracks + m_MaxTracks));

	lea	ecx, DWORD PTR [ebx+12]
	npad	2
$LL6@OnTest:

; 141  : 		pTracks[i].pGrains = pGrains + i * Layers;

	mov	edi, DWORD PTR [esi+140]
	imul	edi, eax
	shl	edi, 4
	add	edi, edx
	mov	DWORD PTR [ecx], edi
	add	eax, 1
	add	ecx, 60					; 0000003cH
	cmp	eax, DWORD PTR [esi+124]
	jb	SHORT $LL6@OnTest
$LN4@OnTest:

; 142  : 	time = GetTickCount();

	mov	ebp, DWORD PTR __imp__GetTickCount@0
	call	ebp

; 143  : 	for (i = 0; i < m_Cycles; i++)

	xor	edi, edi
	cmp	DWORD PTR [esi+120], edi
	mov	DWORD PTR _time$[esp+24], eax
	jbe	SHORT $LN1@OnTest
	npad	2
$LL3@OnTest:

; 144  : 	{
; 145  : 		totaltracks = m_MaxTracks;
; 146  : 		pTk->GetTracks2(pTracks, &totaltracks, 0, Layers - 1);

	mov	edx, DWORD PTR [esi+140]
	mov	eax, DWORD PTR [esi+124]
	sub	edx, 1
	push	edx
	push	0
	mov	DWORD PTR _totaltracks$[esp+32], eax
	mov	eax, DWORD PTR [esi+136]
	mov	ecx, DWORD PTR [eax]
	lea	edx, DWORD PTR _totaltracks$[esp+32]
	push	edx
	push	ebx
	push	eax
	mov	eax, DWORD PTR [ecx+56]
	call	eax
	add	edi, 1
	cmp	edi, DWORD PTR [esi+120]
	jb	SHORT $LL3@OnTest
$LN1@OnTest:

; 147  : 		}
; 148  : 	time = GetTickCount() - time;

	call	ebp
	sub	eax, DWORD PTR _time$[esp+24]

; 149  : 	m_TracksFound = totaltracks;

	mov	ecx, DWORD PTR _totaltracks$[esp+24]

; 150  : 	m_Time.Format("%d", time);

	push	eax
	lea	edx, DWORD PTR [esi+128]
	push	OFFSET ??_C@_02DPKJAMEF@?$CFd?$AA@
	push	edx
	mov	DWORD PTR [esi+132], ecx
	call	DWORD PTR __imp_?Format@?$CStringT@DV?$StrTraitMFC_DLL@DV?$ChTraitsCRT@D@ATL@@@@@ATL@@QAAXPBDZZ
	add	esp, 12					; 0000000cH

; 151  : 	GlobalFree(pTracks);

	push	ebx
	call	DWORD PTR __imp__GlobalFree@4

; 152  : 	UpdateData(FALSE);

	push	0
	mov	ecx, esi
	call	?UpdateData@CWnd@@QAEHH@Z		; CWnd::UpdateData
	pop	edi
	pop	ebp
	pop	esi
	pop	ebx

; 153  : }

	add	esp, 8
	ret	0
?OnTest@CTestDlg@@IAEXXZ ENDP				; CTestDlg::OnTest
_TEXT	ENDS
PUBLIC	??_C@_0N@PCDNMBOP@HelpTest?4htm?$AA@		; `string'
PUBLIC	?OnHelp@CTestDlg@@IAEXXZ			; CTestDlg::OnHelp
EXTRN	_HtmlHelpA@16:PROC
EXTRN	?pHelpPath@CSmartTrackerClass@@2PADA:DWORD	; CSmartTrackerClass::pHelpPath
;	COMDAT ??_C@_0N@PCDNMBOP@HelpTest?4htm?$AA@
CONST	SEGMENT
??_C@_0N@PCDNMBOP@HelpTest?4htm?$AA@ DB 'HelpTest.htm', 00H ; `string'
; Function compile flags: /Ogtpy
CONST	ENDS
;	COMDAT ?OnHelp@CTestDlg@@IAEXXZ
_TEXT	SEGMENT
?OnHelp@CTestDlg@@IAEXXZ PROC				; CTestDlg::OnHelp, COMDAT
; _this$ = ecx

; 157  : 	// TODO: Add your control notification handler code here
; 158  : 	::HtmlHelp(this->m_hWnd, CSmartTrackerClass::pHelpPath, HH_DISPLAY_TOPIC, (DWORD)"HelpTest.htm");

	mov	eax, DWORD PTR ?pHelpPath@CSmartTrackerClass@@2PADA ; CSmartTrackerClass::pHelpPath
	mov	ecx, DWORD PTR [ecx+32]
	push	OFFSET ??_C@_0N@PCDNMBOP@HelpTest?4htm?$AA@
	push	0
	push	eax
	push	ecx
	call	_HtmlHelpA@16

; 159  : }

	ret	0
?OnHelp@CTestDlg@@IAEXXZ ENDP				; CTestDlg::OnHelp
_TEXT	ENDS
PUBLIC	??8ATL@@YA_NABV?$CStringT@DV?$StrTraitMFC_DLL@DV?$ChTraitsCRT@D@ATL@@@@@0@PBD@Z ; ATL::operator==
EXTRN	__imp_?Compare@?$CStringT@DV?$StrTraitMFC_DLL@DV?$ChTraitsCRT@D@ATL@@@@@ATL@@QBEHPBD@Z:PROC
; Function compile flags: /Ogtpy
; File f:\program files\microsoft visual studio 8\vc\atlmfc\include\cstringt.h
;	COMDAT ??8ATL@@YA_NABV?$CStringT@DV?$StrTraitMFC_DLL@DV?$ChTraitsCRT@D@ATL@@@@@0@PBD@Z
_TEXT	SEGMENT
_str1$ = 8						; size = 4
_psz2$ = 12						; size = 4
??8ATL@@YA_NABV?$CStringT@DV?$StrTraitMFC_DLL@DV?$ChTraitsCRT@D@ATL@@@@@0@PBD@Z PROC ; ATL::operator==, COMDAT

; 2364 : 		return( str1.Compare( psz2 ) == 0 );

	mov	eax, DWORD PTR _psz2$[esp-4]
	mov	ecx, DWORD PTR _str1$[esp-4]
	push	eax
	call	DWORD PTR __imp_?Compare@?$CStringT@DV?$StrTraitMFC_DLL@DV?$ChTraitsCRT@D@ATL@@@@@ATL@@QBEHPBD@Z
	neg	eax
	sbb	eax, eax
	add	eax, 1

; 2365 : 	}

	ret	0
??8ATL@@YA_NABV?$CStringT@DV?$StrTraitMFC_DLL@DV?$ChTraitsCRT@D@ATL@@@@@0@PBD@Z ENDP ; ATL::operator==
; Function compile flags: /Ogtpy
; File f:\program files\microsoft visual studio 8\vc\atlmfc\include\afx.inl
_TEXT	ENDS
;	COMDAT ?Serialize@CObject@@UAEXAAVCArchive@@@Z
_TEXT	SEGMENT
___formal$ = 8						; size = 4
?Serialize@CObject@@UAEXAAVCArchive@@@Z PROC		; CObject::Serialize, COMDAT
; _this$ = ecx

; 96   : 	{ /* CObject does not serialize anything by default */ }

	ret	4
?Serialize@CObject@@UAEXAAVCArchive@@@Z ENDP		; CObject::Serialize
_TEXT	ENDS
PUBLIC	??3CObject@@SGXPAX@Z				; CObject::operator delete
EXTRN	??3@YAXPAX@Z:PROC				; operator delete
; Function compile flags: /Ogtpy
;	COMDAT ??3CObject@@SGXPAX@Z
_TEXT	SEGMENT
_p$ = 8							; size = 4
??3CObject@@SGXPAX@Z PROC				; CObject::operator delete, COMDAT

; 102  : 	{ ::operator delete(p); }

	mov	eax, DWORD PTR _p$[esp-4]
	push	eax
	call	??3@YAXPAX@Z				; operator delete
	pop	ecx
	ret	4
??3CObject@@SGXPAX@Z ENDP				; CObject::operator delete
; Function compile flags: /Ogtpy
_TEXT	ENDS
;	COMDAT ?AssertValid@CObject@@UBEXXZ
_TEXT	SEGMENT
?AssertValid@CObject@@UBEXXZ PROC			; CObject::AssertValid, COMDAT
; _this$ = ecx

; 112  : 	{ /* no asserts in release builds */ }

	ret	0
?AssertValid@CObject@@UBEXXZ ENDP			; CObject::AssertValid
; Function compile flags: /Ogtpy
_TEXT	ENDS
;	COMDAT ?Dump@CObject@@UBEXAAVCDumpContext@@@Z
_TEXT	SEGMENT
___formal$ = 8						; size = 4
?Dump@CObject@@UBEXAAVCDumpContext@@@Z PROC		; CObject::Dump, COMDAT
; _this$ = ecx

; 114  : 	{ /* no dumping in release builds */ }

	ret	4
?Dump@CObject@@UBEXAAVCDumpContext@@@Z ENDP		; CObject::Dump
_TEXT	ENDS
PUBLIC	?DoDataExchange@CWnd@@MAEXPAVCDataExchange@@@Z	; CWnd::DoDataExchange
; Function compile flags: /Ogtpy
; File f:\program files\microsoft visual studio 8\vc\atlmfc\include\afxwin2.inl
;	COMDAT ?DoDataExchange@CWnd@@MAEXPAVCDataExchange@@@Z
_TEXT	SEGMENT
___formal$ = 8						; size = 4
?DoDataExchange@CWnd@@MAEXPAVCDataExchange@@@Z PROC	; CWnd::DoDataExchange, COMDAT
; _this$ = ecx

; 577  : 	{ } // default does nothing

	ret	4
?DoDataExchange@CWnd@@MAEXPAVCDataExchange@@@Z ENDP	; CWnd::DoDataExchange
_TEXT	ENDS
EXTRN	__imp__EnableWindow@8:PROC
; Function compile flags: /Ogtpy
;	COMDAT ?BeginModalState@CWnd@@UAEXXZ
_TEXT	SEGMENT
?BeginModalState@CWnd@@UAEXXZ PROC			; CWnd::BeginModalState, COMDAT
; _this$ = ecx

; 581  : 	{ ::EnableWindow(m_hWnd, FALSE); }

	mov	eax, DWORD PTR [ecx+32]
	push	0
	push	eax
	call	DWORD PTR __imp__EnableWindow@8
	ret	0
?BeginModalState@CWnd@@UAEXXZ ENDP			; CWnd::BeginModalState
; Function compile flags: /Ogtpy
_TEXT	ENDS
;	COMDAT ?EndModalState@CWnd@@UAEXXZ
_TEXT	SEGMENT
?EndModalState@CWnd@@UAEXXZ PROC			; CWnd::EndModalState, COMDAT
; _this$ = ecx

; 583  : 	{ ::EnableWindow(m_hWnd, TRUE); }

	mov	eax, DWORD PTR [ecx+32]
	push	1
	push	eax
	call	DWORD PTR __imp__EnableWindow@8
	ret	0
?EndModalState@CWnd@@UAEXXZ ENDP			; CWnd::EndModalState
; Function compile flags: /Ogtpy
_TEXT	ENDS
;	COMDAT ?Create@CDialog@@UAEHIPAVCWnd@@@Z
_TEXT	SEGMENT
_nIDTemplate$ = 8					; size = 4
_pParentWnd$ = 12					; size = 4
?Create@CDialog@@UAEHIPAVCWnd@@@Z PROC			; CDialog::Create, COMDAT
; _this$ = ecx

; 601  : 	{ return CDialog::Create(ATL_MAKEINTRESOURCE(nIDTemplate), pParentWnd); }

	movzx	edx, WORD PTR _nIDTemplate$[esp-4]
	mov	DWORD PTR _nIDTemplate$[esp-4], edx
	jmp	?Create@CDialog@@UAEHPBDPAVCWnd@@@Z	; CDialog::Create
?Create@CDialog@@UAEHIPAVCWnd@@@Z ENDP			; CDialog::Create
; Function compile flags: /Ogtpy
_TEXT	ENDS
;	COMDAT ??_GCTestDlg@@UAEPAXI@Z
_TEXT	SEGMENT
___flags$ = 8						; size = 4
??_GCTestDlg@@UAEPAXI@Z PROC				; CTestDlg::`scalar deleting destructor', COMDAT
; _this$ = ecx
	push	esi
	mov	esi, ecx
	lea	ecx, DWORD PTR [esi+128]
	call	DWORD PTR __imp_??1?$CStringT@DV?$StrTraitMFC_DLL@DV?$ChTraitsCRT@D@ATL@@@@@ATL@@QAE@XZ
	lea	ecx, DWORD PTR [esi+116]
	call	DWORD PTR __imp_??1?$CStringT@DV?$StrTraitMFC_DLL@DV?$ChTraitsCRT@D@ATL@@@@@ATL@@QAE@XZ
	mov	ecx, esi
	call	??1CDialog@@UAE@XZ			; CDialog::~CDialog
	test	BYTE PTR ___flags$[esp], 1
	je	SHORT $LN11@scalar
	push	esi
	call	??3@YAXPAX@Z				; operator delete
	add	esp, 4
$LN11@scalar:
	mov	eax, esi
	pop	esi
	ret	4
??_GCTestDlg@@UAEPAXI@Z ENDP				; CTestDlg::`scalar deleting destructor'
_TEXT	ENDS
EXTRN	?DDV_MinMaxUInt@@YGXPAVCDataExchange@@III@Z:PROC ; DDV_MinMaxUInt
EXTRN	?DDX_Text@@YGXPAVCDataExchange@@HAAI@Z:PROC	; DDX_Text
EXTRN	?DDX_Text@@YGXPAVCDataExchange@@HAAV?$CStringT@DV?$StrTraitMFC_DLL@DV?$ChTraitsCRT@D@ATL@@@@@ATL@@@Z:PROC ; DDX_Text
; Function compile flags: /Ogtpy
; File d:\sysal2\smarttracker8.5\testdlg.cpp
;	COMDAT ?DoDataExchange@CTestDlg@@MAEXPAVCDataExchange@@@Z
_TEXT	SEGMENT
_pDX$ = 8						; size = 4
?DoDataExchange@CTestDlg@@MAEXPAVCDataExchange@@@Z PROC	; CTestDlg::DoDataExchange, COMDAT
; _this$ = ecx

; 36   : {

	push	ebx
	push	esi

; 37   : 	CDialog::DoDataExchange(pDX);
; 38   : 	//{{AFX_DATA_MAP(CTestDlg)
; 39   : 	DDX_Text(pDX, IDC_TS_DATAFILE, m_DataFile);

	mov	esi, DWORD PTR _pDX$[esp+4]
	push	edi
	mov	edi, ecx
	lea	eax, DWORD PTR [edi+116]
	push	eax
	push	219					; 000000dbH
	push	esi
	call	?DDX_Text@@YGXPAVCDataExchange@@HAAV?$CStringT@DV?$StrTraitMFC_DLL@DV?$ChTraitsCRT@D@ATL@@@@@ATL@@@Z ; DDX_Text

; 40   : 	DDX_Text(pDX, IDC_TS_CYCLES, m_Cycles);

	lea	ebx, DWORD PTR [edi+120]
	push	ebx
	push	220					; 000000dcH
	push	esi
	call	?DDX_Text@@YGXPAVCDataExchange@@HAAI@Z	; DDX_Text

; 41   : 	DDV_MinMaxUInt(pDX, m_Cycles, 1, 1000000);

	mov	ecx, DWORD PTR [ebx]
	push	1000000					; 000f4240H
	push	1
	push	ecx
	push	esi
	call	?DDV_MinMaxUInt@@YGXPAVCDataExchange@@III@Z ; DDV_MinMaxUInt

; 42   : 	DDX_Text(pDX, IDC_TS_MAXTRACKS, m_MaxTracks);

	lea	ebx, DWORD PTR [edi+124]
	push	ebx
	push	221					; 000000ddH
	push	esi
	call	?DDX_Text@@YGXPAVCDataExchange@@HAAI@Z	; DDX_Text

; 43   : 	DDV_MinMaxUInt(pDX, m_MaxTracks, 100, 1000000);

	mov	edx, DWORD PTR [ebx]
	push	1000000					; 000f4240H
	push	100					; 00000064H
	push	edx
	push	esi
	call	?DDV_MinMaxUInt@@YGXPAVCDataExchange@@III@Z ; DDV_MinMaxUInt

; 44   : 	DDX_Text(pDX, IDC_TS_TIME, m_Time);

	lea	eax, DWORD PTR [edi+128]
	push	eax
	push	222					; 000000deH
	push	esi
	call	?DDX_Text@@YGXPAVCDataExchange@@HAAV?$CStringT@DV?$StrTraitMFC_DLL@DV?$ChTraitsCRT@D@ATL@@@@@ATL@@@Z ; DDX_Text

; 45   : 	DDX_Text(pDX, IDC_TS_TRACKSFOUND, m_TracksFound);

	add	edi, 132				; 00000084H
	push	edi
	push	223					; 000000dfH
	push	esi
	call	?DDX_Text@@YGXPAVCDataExchange@@HAAI@Z	; DDX_Text
	pop	edi
	pop	esi
	pop	ebx

; 46   : 	//}}AFX_DATA_MAP
; 47   : }

	ret	4
?DoDataExchange@CTestDlg@@MAEXPAVCDataExchange@@@Z ENDP	; CTestDlg::DoDataExchange
_TEXT	ENDS
PUBLIC	??_C@_0BL@EEDPGPGL@?$CFd?5?$CFd?5?$CFd?5?$CFf?5?$CFd?5?$CFd?5?$CFf?5?$CFf?5?$CFd?$AA@ ; `string'
PUBLIC	??_C@_0CA@KPABJCCK@Error?5in?5camera?5specifications?$CB?$AA@ ; `string'
PUBLIC	??_C@_09FPKBMIEC@I?1O?5Error?$AA@		; `string'
PUBLIC	??_C@_0BI@DLDKCLPO@?$CFd?5?$CFd?5?$CFd?5?$CFd?5?$CFd?5?$CFd?5?$CFf?5?$CFf?$AA@ ; `string'
PUBLIC	??_C@_0BM@LLEINLKF@Can?8t?5open?5input?5data?5file?$CB?$AA@ ; `string'
PUBLIC	??_C@_0L@CJKFIAPI@File?5Error?$AA@		; `string'
PUBLIC	??_C@_02BMJICGCB@rt?$AA@			; `string'
PUBLIC	?OnLoad@CTestDlg@@IAEXXZ			; CTestDlg::OnLoad
EXTRN	__imp__fclose:PROC
EXTRN	__imp__free:PROC
EXTRN	__imp__realloc:PROC
EXTRN	__imp__malloc:PROC
EXTRN	__imp__fscanf:PROC
EXTRN	__imp__fopen:PROC
EXTRN	__fltused:DWORD
;	COMDAT ??_C@_0BL@EEDPGPGL@?$CFd?5?$CFd?5?$CFd?5?$CFf?5?$CFd?5?$CFd?5?$CFf?5?$CFf?5?$CFd?$AA@
; File f:\program files\microsoft visual studio 8\vc\atlmfc\include\cstringt.h
CONST	SEGMENT
??_C@_0BL@EEDPGPGL@?$CFd?5?$CFd?5?$CFd?5?$CFf?5?$CFd?5?$CFd?5?$CFf?5?$CFf?5?$CFd?$AA@ DB '%'
	DB	'd %d %d %f %d %d %f %f %d', 00H		; `string'
CONST	ENDS
;	COMDAT ??_C@_0CA@KPABJCCK@Error?5in?5camera?5specifications?$CB?$AA@
CONST	SEGMENT
??_C@_0CA@KPABJCCK@Error?5in?5camera?5specifications?$CB?$AA@ DB 'Error i'
	DB	'n camera specifications!', 00H		; `string'
CONST	ENDS
;	COMDAT ??_C@_09FPKBMIEC@I?1O?5Error?$AA@
CONST	SEGMENT
??_C@_09FPKBMIEC@I?1O?5Error?$AA@ DB 'I/O Error', 00H	; `string'
CONST	ENDS
;	COMDAT ??_C@_0BI@DLDKCLPO@?$CFd?5?$CFd?5?$CFd?5?$CFd?5?$CFd?5?$CFd?5?$CFf?5?$CFf?$AA@
CONST	SEGMENT
??_C@_0BI@DLDKCLPO@?$CFd?5?$CFd?5?$CFd?5?$CFd?5?$CFd?5?$CFd?5?$CFf?5?$CFf?$AA@ DB '%'
	DB	'd %d %d %d %d %d %f %f', 00H		; `string'
CONST	ENDS
;	COMDAT ??_C@_0BM@LLEINLKF@Can?8t?5open?5input?5data?5file?$CB?$AA@
CONST	SEGMENT
??_C@_0BM@LLEINLKF@Can?8t?5open?5input?5data?5file?$CB?$AA@ DB 'Can''t op'
	DB	'en input data file!', 00H			; `string'
CONST	ENDS
;	COMDAT ??_C@_0L@CJKFIAPI@File?5Error?$AA@
CONST	SEGMENT
??_C@_0L@CJKFIAPI@File?5Error?$AA@ DB 'File Error', 00H	; `string'
CONST	ENDS
;	COMDAT ??_C@_02BMJICGCB@rt?$AA@
CONST	SEGMENT
??_C@_02BMJICGCB@rt?$AA@ DB 'rt', 00H			; `string'
; Function compile flags: /Ogtpy
; File d:\sysal2\smarttracker8.5\testdlg.cpp
CONST	ENDS
;	COMDAT ?OnLoad@CTestDlg@@IAEXXZ
_TEXT	SEGMENT
_pC$ = -124						; size = 4
_max$ = -120						; size = 4
_nextlayer$ = -116					; size = 4
_Z$ = -112						; size = 4
_f$ = -108						; size = 4
_side$ = -104						; size = 4
_layer$ = -100						; size = 4
tv320 = -96						; size = 4
_nextside$ = -92					; size = 4
_nextfield$ = -88					; size = 4
_field$ = -84						; size = 4
_nextid$ = -80						; size = 4
_count$ = -76						; size = 4
_CAM$ = -72						; size = 32
_C$ = -40						; size = 40
?OnLoad@CTestDlg@@IAEXXZ PROC				; CTestDlg::OnLoad, COMDAT
; _this$ = ecx

; 63   : {

	sub	esp, 124				; 0000007cH
	push	ebx
	push	ebp
	push	esi
	push	edi

; 64   : 	// TODO: Add your control notification handler code here
; 65   : 	UpdateData();

	push	1
	mov	ebx, ecx
	call	?UpdateData@CWnd@@QAEHH@Z		; CWnd::UpdateData

; 66   : 	CameraSpec CAM;
; 67   : 	if (m_DataFile == "") return;

	lea	esi, DWORD PTR [ebx+116]
	push	OFFSET ??_C@_00CNPNBAHC@?$AA@
	mov	ecx, esi
	call	DWORD PTR __imp_?Compare@?$CStringT@DV?$StrTraitMFC_DLL@DV?$ChTraitsCRT@D@ATL@@@@@ATL@@QBEHPBD@Z
	test	eax, eax
	je	$LN11@OnLoad

; 68   : 	FILE *f = fopen(m_DataFile, "rt");

	push	OFFSET ??_C@_02BMJICGCB@rt?$AA@
	mov	ecx, esi
	call	DWORD PTR __imp_??B?$CSimpleStringT@D$00@ATL@@QBEPBDXZ
	push	eax
	call	DWORD PTR __imp__fopen

; 69   : 	if (!f)

	xor	ebp, ebp
	add	esp, 8
	cmp	eax, ebp
	mov	DWORD PTR _f$[esp+140], eax
	jne	SHORT $LN9@OnLoad

; 70   : 	{
; 71   : 		MessageBox("Can't open input data file!", "File Error", MB_ICONERROR | MB_OK);

	push	16					; 00000010H
	push	OFFSET ??_C@_0L@CJKFIAPI@File?5Error?$AA@
	push	OFFSET ??_C@_0BM@LLEINLKF@Can?8t?5open?5input?5data?5file?$CB?$AA@
	mov	ecx, ebx
	call	?MessageBoxA@CWnd@@QAEHPBD0I@Z		; CWnd::MessageBoxA

; 112  : }

	pop	edi
	pop	esi
	pop	ebp
	pop	ebx
	add	esp, 124				; 0000007cH
	ret	0
$LN9@OnLoad:

; 72   : 		return;
; 73   : 		}
; 74   : 	if (fscanf(f, "%d %d %d %d %d %d %f %f", &CAM.Width, &CAM.Height, &CAM.OffX, &CAM.OffY, &CAM.WinWidth, &CAM.WinHeight, &CAM.PixelToMicronX, &CAM.PixelToMicronY) != 8)

	lea	ecx, DWORD PTR _CAM$[esp+168]
	push	ecx
	lea	edx, DWORD PTR _CAM$[esp+168]
	push	edx
	lea	ecx, DWORD PTR _CAM$[esp+168]
	push	ecx
	lea	edx, DWORD PTR _CAM$[esp+168]
	push	edx
	lea	ecx, DWORD PTR _CAM$[esp+168]
	push	ecx
	lea	edx, DWORD PTR _CAM$[esp+168]
	push	edx
	lea	ecx, DWORD PTR _CAM$[esp+168]
	push	ecx
	lea	edx, DWORD PTR _CAM$[esp+168]
	push	edx
	push	OFFSET ??_C@_0BI@DLDKCLPO@?$CFd?5?$CFd?5?$CFd?5?$CFd?5?$CFd?5?$CFd?5?$CFf?5?$CFf?$AA@
	push	eax
	call	DWORD PTR __imp__fscanf
	add	esp, 40					; 00000028H
	cmp	eax, 8
	je	SHORT $LN8@OnLoad

; 75   : 	{
; 76   : 		MessageBox("Error in camera specifications!", "I/O Error", MB_ICONERROR | MB_OK);

	push	16					; 00000010H
	push	OFFSET ??_C@_09FPKBMIEC@I?1O?5Error?$AA@
	push	OFFSET ??_C@_0CA@KPABJCCK@Error?5in?5camera?5specifications?$CB?$AA@
	mov	ecx, ebx
	call	?MessageBoxA@CWnd@@QAEHPBD0I@Z		; CWnd::MessageBoxA

; 112  : }

	pop	edi
	pop	esi
	pop	ebp
	pop	ebx
	add	esp, 124				; 0000007cH
	ret	0
$LN8@OnLoad:

; 77   : 		return;
; 78   : 		}
; 79   : 	pTk->SetCameraSpec(CAM);

	mov	eax, DWORD PTR [ebx+136]
	mov	edx, DWORD PTR [eax]
	sub	esp, 32					; 00000020H
	mov	edi, esp
	push	eax
	mov	eax, DWORD PTR [edx+16]
	mov	ecx, 8
	lea	esi, DWORD PTR _CAM$[esp+176]
	rep movsd
	call	eax

; 80   : 	pTk->StartFilling();

	mov	eax, DWORD PTR [ebx+136]
	mov	ecx, DWORD PTR [eax]
	mov	edx, DWORD PTR [ecx+12]
	push	eax
	call	edx

; 81   : 	Layers = 0;
; 82   : 	int field = -1, layer = -1, id = -1, side = -1;

	or	edi, -1

; 83   : 	int nextfield, nextlayer, nextid, count, nextside;
; 84   : 	float Z;
; 85   : 	Cluster C;
; 86   : 	const int allocblock = 10000;
; 87   : 	int current = 0, max;
; 88   : 	Cluster *pC = (Cluster *)malloc(sizeof(Cluster) * (max = allocblock));

	push	400000					; 00061a80H
	mov	DWORD PTR [ebx+140], ebp
	mov	DWORD PTR _layer$[esp+144], edi
	mov	DWORD PTR _side$[esp+144], edi
	mov	DWORD PTR _max$[esp+144], 10000		; 00002710H
	call	DWORD PTR __imp__malloc
	mov	esi, eax

; 89   : 	while (fscanf(f, "%d %d %d %f %d %d %f %f %d", &nextfield, &nextside, &nextlayer, &Z, &count, &nextid, &C.X, &C.Y, &C.Area) == 9)

	lea	eax, DWORD PTR _C$[esp+152]
	push	eax
	lea	ecx, DWORD PTR _C$[esp+152]
	push	ecx
	lea	edx, DWORD PTR _C$[esp+152]
	push	edx
	lea	eax, DWORD PTR _nextid$[esp+156]
	push	eax
	lea	ecx, DWORD PTR _count$[esp+160]
	push	ecx
	lea	edx, DWORD PTR _Z$[esp+164]
	push	edx
	lea	eax, DWORD PTR _nextlayer$[esp+168]
	push	eax
	mov	eax, DWORD PTR _f$[esp+172]
	lea	ecx, DWORD PTR _nextside$[esp+172]
	push	ecx
	lea	edx, DWORD PTR _nextfield$[esp+176]
	push	edx
	push	OFFSET ??_C@_0BL@EEDPGPGL@?$CFd?5?$CFd?5?$CFd?5?$CFf?5?$CFd?5?$CFd?5?$CFf?5?$CFf?5?$CFd?$AA@
	push	eax
	mov	DWORD PTR _pC$[esp+188], esi
	call	DWORD PTR __imp__fscanf
	add	esp, 48					; 00000030H
	cmp	eax, 9
	jne	$LN1@OnLoad

; 77   : 		return;
; 78   : 		}
; 79   : 	pTk->SetCameraSpec(CAM);

	mov	DWORD PTR tv320[esp+140], 400000	; 00061a80H
	jmp	SHORT $LN7@OnLoad
$LL18@OnLoad:
	mov	edi, DWORD PTR _field$[esp+140]
$LN7@OnLoad:

; 90   : 	{
; 91   : 		if (nextfield != field && field != -1) break;

	mov	ecx, DWORD PTR _nextfield$[esp+140]
	cmp	ecx, edi
	je	SHORT $LN20@OnLoad
	cmp	edi, -1
	jne	$LN16@OnLoad
$LN20@OnLoad:

; 92   : 		if (nextside != side && side != -1) break;

	mov	eax, DWORD PTR _nextside$[esp+140]
	mov	edx, DWORD PTR _side$[esp+140]
	cmp	eax, edx
	je	SHORT $LN21@OnLoad
	cmp	edx, -1
	jne	$LN16@OnLoad
$LN21@OnLoad:

; 93   : 		field = nextfield;
; 94   : 		side = nextside;

	mov	DWORD PTR _side$[esp+140], eax

; 95   : 		if (nextlayer != layer && layer != -1)

	mov	eax, DWORD PTR _layer$[esp+140]
	cmp	DWORD PTR _nextlayer$[esp+140], eax
	mov	DWORD PTR _field$[esp+140], ecx
	je	SHORT $LN19@OnLoad
	cmp	eax, -1
	je	SHORT $LN19@OnLoad

; 96   : 		{
; 97   : 			pTk->PutClusters(pC, current, Z);

	mov	eax, DWORD PTR [ebx+136]
	fld	DWORD PTR _Z$[esp+140]
	mov	ecx, DWORD PTR [eax]
	mov	edx, DWORD PTR [ecx+24]
	push	ecx
	fstp	DWORD PTR [esp]
	push	ebp
	push	esi
	push	eax
	call	edx

; 98   : 			Layers++;

	add	DWORD PTR [ebx+140], 1

; 99   : 			current = 0;

	xor	ebp, ebp
$LN19@OnLoad:

; 100  : 			}
; 101  : 		layer = nextlayer;

	mov	eax, DWORD PTR _nextlayer$[esp+140]

; 102  : 		pC[current++] = C;

	lea	ecx, DWORD PTR [ebp+ebp*4]
	lea	edi, DWORD PTR [esi+ecx*8]
	add	ebp, 1

; 103  : 		if (current >= max) pC = (Cluster *)realloc(pC, sizeof(Cluster) * (max += allocblock));

	cmp	ebp, DWORD PTR _max$[esp+140]
	mov	ecx, 10					; 0000000aH
	lea	esi, DWORD PTR _C$[esp+140]
	mov	DWORD PTR _layer$[esp+140], eax
	rep movsd
	jl	SHORT $LN2@OnLoad
	mov	eax, DWORD PTR tv320[esp+140]
	mov	edx, DWORD PTR _pC$[esp+140]
	add	DWORD PTR _max$[esp+140], 10000		; 00002710H
	add	eax, 400000				; 00061a80H
	push	eax
	push	edx
	mov	DWORD PTR tv320[esp+148], eax
	call	DWORD PTR __imp__realloc
	add	esp, 8
	mov	DWORD PTR _pC$[esp+140], eax
$LN2@OnLoad:
	lea	eax, DWORD PTR _C$[esp+148]
	push	eax
	lea	ecx, DWORD PTR _C$[esp+148]
	push	ecx
	lea	edx, DWORD PTR _C$[esp+148]
	push	edx
	lea	eax, DWORD PTR _nextid$[esp+152]
	push	eax
	lea	ecx, DWORD PTR _count$[esp+156]
	push	ecx
	lea	edx, DWORD PTR _Z$[esp+160]
	push	edx
	lea	eax, DWORD PTR _nextlayer$[esp+164]
	push	eax
	mov	eax, DWORD PTR _f$[esp+168]
	lea	ecx, DWORD PTR _nextside$[esp+168]
	push	ecx
	lea	edx, DWORD PTR _nextfield$[esp+172]
	push	edx
	push	OFFSET ??_C@_0BL@EEDPGPGL@?$CFd?5?$CFd?5?$CFd?5?$CFf?5?$CFd?5?$CFd?5?$CFf?5?$CFf?5?$CFd?$AA@
	push	eax
	call	DWORD PTR __imp__fscanf
	mov	esi, DWORD PTR _pC$[esp+184]
	add	esp, 44					; 0000002cH
	cmp	eax, 9
	je	$LL18@OnLoad
$LN16@OnLoad:

; 104  : 		}
; 105  : 	if (current > 0)

	test	ebp, ebp
	jle	SHORT $LN1@OnLoad

; 106  : 	{
; 107  : 		pTk->PutClusters(pC, current, Z);

	mov	eax, DWORD PTR [ebx+136]
	fld	DWORD PTR _Z$[esp+140]
	mov	ecx, DWORD PTR [eax]
	mov	edx, DWORD PTR [ecx+24]
	push	ecx
	fstp	DWORD PTR [esp]
	push	ebp
	push	esi
	push	eax
	call	edx

; 108  : 		Layers++;

	add	DWORD PTR [ebx+140], 1
$LN1@OnLoad:

; 109  : 		}
; 110  : 	free(pC);

	push	esi
	call	DWORD PTR __imp__free

; 111  : 	fclose(f);

	mov	eax, DWORD PTR _f$[esp+144]
	push	eax
	call	DWORD PTR __imp__fclose
	add	esp, 8
$LN11@OnLoad:

; 112  : }

	pop	edi
	pop	esi
	pop	ebp
	pop	ebx
	add	esp, 124				; 0000007cH
	ret	0
?OnLoad@CTestDlg@@IAEXXZ ENDP				; CTestDlg::OnLoad
_TEXT	ENDS
PUBLIC	?GetThisMessageMap@CTestDlg@@KGPBUAFX_MSGMAP@@XZ ; CTestDlg::GetThisMessageMap
EXTRN	?GetThisMessageMap@CDialog@@KGPBUAFX_MSGMAP@@XZ:PROC ; CDialog::GetThisMessageMap
;	COMDAT ?_messageEntries@?1??GetThisMessageMap@CTestDlg@@KGPBUAFX_MSGMAP@@XZ@4QBUAFX_MSGMAP_ENTRY@@B
CONST	SEGMENT
?_messageEntries@?1??GetThisMessageMap@CTestDlg@@KGPBUAFX_MSGMAP@@XZ@4QBUAFX_MSGMAP_ENTRY@@B DD 0111H ; `CTestDlg::GetThisMessageMap'::`2'::_messageEntries
	DD	00H
	DD	03H
	DD	03H
	DD	038H
	DD	FLAT:?OnLoad@CTestDlg@@IAEXXZ
	DD	0111H
	DD	00H
	DD	04H
	DD	04H
	DD	038H
	DD	FLAT:?OnSelFile@CTestDlg@@IAEXXZ
	DD	0111H
	DD	00H
	DD	05H
	DD	05H
	DD	038H
	DD	FLAT:?OnTest@CTestDlg@@IAEXXZ
	DD	0111H
	DD	00H
	DD	06H
	DD	06H
	DD	038H
	DD	FLAT:?OnHelp@CTestDlg@@IAEXXZ
	DD	00H
	DD	00H
	DD	00H
	DD	00H
	DD	00H
	DD	00H
CONST	ENDS
;	COMDAT ?messageMap@?1??GetThisMessageMap@CTestDlg@@KGPBUAFX_MSGMAP@@XZ@4U3@B
CONST	SEGMENT
?messageMap@?1??GetThisMessageMap@CTestDlg@@KGPBUAFX_MSGMAP@@XZ@4U3@B DD FLAT:?GetThisMessageMap@CDialog@@KGPBUAFX_MSGMAP@@XZ ; `CTestDlg::GetThisMessageMap'::`2'::messageMap
	DD	FLAT:?_messageEntries@?1??GetThisMessageMap@CTestDlg@@KGPBUAFX_MSGMAP@@XZ@4QBUAFX_MSGMAP_ENTRY@@B
; Function compile flags: /Ogtpy
CONST	ENDS
;	COMDAT ?GetThisMessageMap@CTestDlg@@KGPBUAFX_MSGMAP@@XZ
_TEXT	SEGMENT
?GetThisMessageMap@CTestDlg@@KGPBUAFX_MSGMAP@@XZ PROC	; CTestDlg::GetThisMessageMap, COMDAT

; 51   : 	//{{AFX_MSG_MAP(CTestDlg)
; 52   : 	ON_BN_CLICKED(IDC_TS_LOAD, OnLoad)
; 53   : 	ON_BN_CLICKED(IDC_TS_SELFILE, OnSelFile)
; 54   : 	ON_BN_CLICKED(IDC_TS_TEST, OnTest)
; 55   : 	ON_BN_CLICKED(IDC_TS_HELP, OnHelp)
; 56   : 	//}}AFX_MSG_MAP
; 57   : END_MESSAGE_MAP()

	mov	eax, OFFSET ?messageMap@?1??GetThisMessageMap@CTestDlg@@KGPBUAFX_MSGMAP@@XZ@4U3@B
	ret	0
?GetThisMessageMap@CTestDlg@@KGPBUAFX_MSGMAP@@XZ ENDP	; CTestDlg::GetThisMessageMap
; Function compile flags: /Ogtpy
_TEXT	ENDS
;	COMDAT ?GetMessageMap@CTestDlg@@MBEPBUAFX_MSGMAP@@XZ
_TEXT	SEGMENT
?GetMessageMap@CTestDlg@@MBEPBUAFX_MSGMAP@@XZ PROC	; CTestDlg::GetMessageMap, COMDAT
; _this$ = ecx

; 50   : BEGIN_MESSAGE_MAP(CTestDlg, CDialog)

	mov	eax, OFFSET ?messageMap@?1??GetThisMessageMap@CTestDlg@@KGPBUAFX_MSGMAP@@XZ@4U3@B
	ret	0
?GetMessageMap@CTestDlg@@MBEPBUAFX_MSGMAP@@XZ ENDP	; CTestDlg::GetMessageMap
_TEXT	ENDS
END
