; Listing generated by Microsoft (R) Optimizing Compiler Version 14.00.50727.762 

	TITLE	d:\SySal2\SmartTracker8.6\EditConfig.cpp
	.686P
	.XMM
	include listing.inc
	.model	flat

INCLUDELIB MSVCRT
INCLUDELIB OLDNAMES

PUBLIC	??_7CListCtrl@@6B@				; CListCtrl::`vftable'
PUBLIC	??0CListCtrl@@QAE@XZ				; CListCtrl::CListCtrl
PUBLIC	??_R4CListCtrl@@6B@				; CListCtrl::`RTTI Complete Object Locator'
PUBLIC	??_R0?AVCListCtrl@@@8				; CListCtrl `RTTI Type Descriptor'
PUBLIC	??_R3CListCtrl@@8				; CListCtrl::`RTTI Class Hierarchy Descriptor'
PUBLIC	??_R2CListCtrl@@8				; CListCtrl::`RTTI Base Class Array'
PUBLIC	??_R1A@?0A@EA@CListCtrl@@8			; CListCtrl::`RTTI Base Class Descriptor at (0,-1,0,64)'
PUBLIC	??_R1A@?0A@EA@CWnd@@8				; CWnd::`RTTI Base Class Descriptor at (0,-1,0,64)'
PUBLIC	??_R0?AVCWnd@@@8				; CWnd `RTTI Type Descriptor'
PUBLIC	??_R3CWnd@@8					; CWnd::`RTTI Class Hierarchy Descriptor'
PUBLIC	??_R2CWnd@@8					; CWnd::`RTTI Base Class Array'
PUBLIC	??_R1A@?0A@EA@CCmdTarget@@8			; CCmdTarget::`RTTI Base Class Descriptor at (0,-1,0,64)'
PUBLIC	??_R0?AVCCmdTarget@@@8				; CCmdTarget `RTTI Type Descriptor'
PUBLIC	??_R3CCmdTarget@@8				; CCmdTarget::`RTTI Class Hierarchy Descriptor'
PUBLIC	??_R2CCmdTarget@@8				; CCmdTarget::`RTTI Base Class Array'
PUBLIC	??_R1A@?0A@EA@CObject@@8			; CObject::`RTTI Base Class Descriptor at (0,-1,0,64)'
PUBLIC	??_R0?AVCObject@@@8				; CObject `RTTI Type Descriptor'
PUBLIC	??_R3CObject@@8					; CObject::`RTTI Class Hierarchy Descriptor'
PUBLIC	??_R2CObject@@8					; CObject::`RTTI Base Class Array'
PUBLIC	?Serialize@CObject@@UAEXAAVCArchive@@@Z		; CObject::Serialize
PUBLIC	?AssertValid@CObject@@UBEXXZ			; CObject::AssertValid
PUBLIC	?Dump@CObject@@UBEXAAVCDumpContext@@@Z		; CObject::Dump
PUBLIC	?DoDataExchange@CWnd@@MAEXPAVCDataExchange@@@Z	; CWnd::DoDataExchange
PUBLIC	?BeginModalState@CWnd@@UAEXXZ			; CWnd::BeginModalState
PUBLIC	?EndModalState@CWnd@@UAEXXZ			; CWnd::EndModalState
EXTRN	??0CWnd@@QAE@XZ:PROC				; CWnd::CWnd
EXTRN	??_7type_info@@6B@:QWORD			; type_info::`vftable'
EXTRN	?GetRuntimeClass@CListCtrl@@UBEPAUCRuntimeClass@@XZ:PROC ; CListCtrl::GetRuntimeClass
EXTRN	??_ECListCtrl@@UAEPAXI@Z:PROC			; CListCtrl::`vector deleting destructor'
EXTRN	?OnCmdMsg@CCmdTarget@@UAEHIHPAXPAUAFX_CMDHANDLERINFO@@@Z:PROC ; CCmdTarget::OnCmdMsg
EXTRN	?OnFinalRelease@CWnd@@UAEXXZ:PROC		; CWnd::OnFinalRelease
EXTRN	?IsInvokeAllowed@CCmdTarget@@UAEHJ@Z:PROC	; CCmdTarget::IsInvokeAllowed
EXTRN	?GetDispatchIID@CCmdTarget@@UAEHPAU_GUID@@@Z:PROC ; CCmdTarget::GetDispatchIID
EXTRN	?GetTypeInfoCount@CCmdTarget@@UAEIXZ:PROC	; CCmdTarget::GetTypeInfoCount
EXTRN	?GetTypeLibCache@CCmdTarget@@UAEPAVCTypeLibCache@@XZ:PROC ; CCmdTarget::GetTypeLibCache
EXTRN	?GetTypeLib@CCmdTarget@@UAEJKPAPAUITypeLib@@@Z:PROC ; CCmdTarget::GetTypeLib
EXTRN	?GetMessageMap@CListCtrl@@MBEPBUAFX_MSGMAP@@XZ:PROC ; CListCtrl::GetMessageMap
EXTRN	?GetCommandMap@CCmdTarget@@MBEPBUAFX_OLECMDMAP@@XZ:PROC ; CCmdTarget::GetCommandMap
EXTRN	?GetDispatchMap@CCmdTarget@@MBEPBUAFX_DISPMAP@@XZ:PROC ; CCmdTarget::GetDispatchMap
EXTRN	?GetConnectionMap@CCmdTarget@@MBEPBUAFX_CONNECTIONMAP@@XZ:PROC ; CCmdTarget::GetConnectionMap
EXTRN	?GetInterfaceMap@CWnd@@MBEPBUAFX_INTERFACEMAP@@XZ:PROC ; CWnd::GetInterfaceMap
EXTRN	?GetEventSinkMap@CCmdTarget@@MBEPBUAFX_EVENTSINKMAP@@XZ:PROC ; CCmdTarget::GetEventSinkMap
EXTRN	?OnCreateAggregates@CCmdTarget@@UAEHXZ:PROC	; CCmdTarget::OnCreateAggregates
EXTRN	?GetInterfaceHook@CCmdTarget@@UAEPAUIUnknown@@PBX@Z:PROC ; CCmdTarget::GetInterfaceHook
EXTRN	?GetExtraConnectionPoints@CCmdTarget@@MAEHPAVCPtrArray@@@Z:PROC ; CCmdTarget::GetExtraConnectionPoints
EXTRN	?GetConnectionHook@CCmdTarget@@MAEPAUIConnectionPoint@@ABU_GUID@@@Z:PROC ; CCmdTarget::GetConnectionHook
EXTRN	?PreSubclassWindow@CWnd@@UAEXXZ:PROC		; CWnd::PreSubclassWindow
EXTRN	?Create@CWnd@@UAEHPBD0KABUtagRECT@@PAV1@IPAUCCreateContext@@@Z:PROC ; CWnd::Create
EXTRN	?CreateEx@CWnd@@UAEHKPBD0KABUtagRECT@@PAV1@IPAX@Z:PROC ; CWnd::CreateEx
EXTRN	?CreateEx@CWnd@@UAEHKPBD0KHHHHPAUHWND__@@PAUHMENU__@@PAX@Z:PROC ; CWnd::CreateEx
EXTRN	?DestroyWindow@CWnd@@UAEHXZ:PROC		; CWnd::DestroyWindow
EXTRN	?PreCreateWindow@CWnd@@UAEHAAUtagCREATESTRUCTA@@@Z:PROC ; CWnd::PreCreateWindow
EXTRN	?CalcWindowRect@CWnd@@UAEXPAUtagRECT@@I@Z:PROC	; CWnd::CalcWindowRect
EXTRN	?OnToolHitTest@CWnd@@UBEHVCPoint@@PAUtagTOOLINFOA@@@Z:PROC ; CWnd::OnToolHitTest
EXTRN	?GetScrollBarCtrl@CWnd@@UBEPAVCScrollBar@@H@Z:PROC ; CWnd::GetScrollBarCtrl
EXTRN	?WinHelpA@CWnd@@UAEXKI@Z:PROC			; CWnd::WinHelpA
EXTRN	?HtmlHelpA@CWnd@@UAEXKI@Z:PROC			; CWnd::HtmlHelpA
EXTRN	?WinHelpInternal@CWnd@@UAEXKI@Z:PROC		; CWnd::WinHelpInternal
EXTRN	?ContinueModal@CWnd@@UAEHXZ:PROC		; CWnd::ContinueModal
EXTRN	?EndModalLoop@CWnd@@UAEXH@Z:PROC		; CWnd::EndModalLoop
EXTRN	?EnsureStdObj@CWnd@@UAEJXZ:PROC			; CWnd::EnsureStdObj
EXTRN	?get_accParent@CWnd@@UAEJPAPAUIDispatch@@@Z:PROC ; CWnd::get_accParent
EXTRN	?get_accChildCount@CWnd@@UAEJPAJ@Z:PROC		; CWnd::get_accChildCount
EXTRN	?get_accChild@CWnd@@UAEJUtagVARIANT@@PAPAUIDispatch@@@Z:PROC ; CWnd::get_accChild
EXTRN	?get_accName@CWnd@@UAEJUtagVARIANT@@PAPA_W@Z:PROC ; CWnd::get_accName
EXTRN	?get_accValue@CWnd@@UAEJUtagVARIANT@@PAPA_W@Z:PROC ; CWnd::get_accValue
EXTRN	?get_accDescription@CWnd@@UAEJUtagVARIANT@@PAPA_W@Z:PROC ; CWnd::get_accDescription
EXTRN	?get_accRole@CWnd@@UAEJUtagVARIANT@@PAU2@@Z:PROC ; CWnd::get_accRole
EXTRN	?get_accState@CWnd@@UAEJUtagVARIANT@@PAU2@@Z:PROC ; CWnd::get_accState
EXTRN	?get_accHelp@CWnd@@UAEJUtagVARIANT@@PAPA_W@Z:PROC ; CWnd::get_accHelp
EXTRN	?get_accHelpTopic@CWnd@@UAEJPAPA_WUtagVARIANT@@PAJ@Z:PROC ; CWnd::get_accHelpTopic
EXTRN	?get_accKeyboardShortcut@CWnd@@UAEJUtagVARIANT@@PAPA_W@Z:PROC ; CWnd::get_accKeyboardShortcut
EXTRN	?get_accFocus@CWnd@@UAEJPAUtagVARIANT@@@Z:PROC	; CWnd::get_accFocus
EXTRN	?get_accSelection@CWnd@@UAEJPAUtagVARIANT@@@Z:PROC ; CWnd::get_accSelection
EXTRN	?get_accDefaultAction@CWnd@@UAEJUtagVARIANT@@PAPA_W@Z:PROC ; CWnd::get_accDefaultAction
EXTRN	?accSelect@CWnd@@UAEJJUtagVARIANT@@@Z:PROC	; CWnd::accSelect
EXTRN	?accLocation@CWnd@@UAEJPAJ000UtagVARIANT@@@Z:PROC ; CWnd::accLocation
EXTRN	?accNavigate@CWnd@@UAEJJUtagVARIANT@@PAU2@@Z:PROC ; CWnd::accNavigate
EXTRN	?accHitTest@CWnd@@UAEJJJPAUtagVARIANT@@@Z:PROC	; CWnd::accHitTest
EXTRN	?accDoDefaultAction@CWnd@@UAEJUtagVARIANT@@@Z:PROC ; CWnd::accDoDefaultAction
EXTRN	?put_accName@CWnd@@UAEJUtagVARIANT@@PA_W@Z:PROC	; CWnd::put_accName
EXTRN	?put_accValue@CWnd@@UAEJUtagVARIANT@@PA_W@Z:PROC ; CWnd::put_accValue
EXTRN	?SetProxy@CWnd@@UAEJPAUIAccessibleProxy@@@Z:PROC ; CWnd::SetProxy
EXTRN	?CreateAccessibleProxy@CWnd@@UAEJIJPAJ@Z:PROC	; CWnd::CreateAccessibleProxy
EXTRN	?OnCommand@CWnd@@MAEHIJ@Z:PROC			; CWnd::OnCommand
EXTRN	?OnNotify@CWnd@@MAEHIJPAJ@Z:PROC		; CWnd::OnNotify
EXTRN	?GetSuperWndProcAddr@CWnd@@MAEPAP6GJPAUHWND__@@IIJ@ZXZ:PROC ; CWnd::GetSuperWndProcAddr
EXTRN	?PreTranslateMessage@CWnd@@UAEHPAUtagMSG@@@Z:PROC ; CWnd::PreTranslateMessage
EXTRN	?OnAmbientProperty@CWnd@@UAEHPAVCOleControlSite@@JPAUtagVARIANT@@@Z:PROC ; CWnd::OnAmbientProperty
EXTRN	?WindowProc@CWnd@@MAEJIIJ@Z:PROC		; CWnd::WindowProc
EXTRN	?OnWndMsg@CWnd@@MAEHIIJPAJ@Z:PROC		; CWnd::OnWndMsg
EXTRN	?DefWindowProcA@CWnd@@MAEJIIJ@Z:PROC		; CWnd::DefWindowProcA
EXTRN	?PostNcDestroy@CWnd@@MAEXXZ:PROC		; CWnd::PostNcDestroy
EXTRN	?OnChildNotify@CListCtrl@@MAEHIIJPAJ@Z:PROC	; CListCtrl::OnChildNotify
EXTRN	?CheckAutoCenter@CWnd@@UAEHXZ:PROC		; CWnd::CheckAutoCenter
EXTRN	?IsFrameWnd@CWnd@@UBEHXZ:PROC			; CWnd::IsFrameWnd
EXTRN	?CreateControlContainer@CWnd@@MAEHPAPAVCOleControlContainer@@@Z:PROC ; CWnd::CreateControlContainer
EXTRN	?CreateControlSite@CWnd@@MAEHPAVCOleControlContainer@@PAPAVCOleControlSite@@IABU_GUID@@@Z:PROC ; CWnd::CreateControlSite
EXTRN	?SetOccDialogInfo@CWnd@@MAEHPAU_AFX_OCC_DIALOG_INFO@@@Z:PROC ; CWnd::SetOccDialogInfo
EXTRN	?GetOccDialogInfo@CWnd@@MAEPAU_AFX_OCC_DIALOG_INFO@@XZ:PROC ; CWnd::GetOccDialogInfo
EXTRN	?DrawItem@CListCtrl@@UAEXPAUtagDRAWITEMSTRUCT@@@Z:PROC ; CListCtrl::DrawItem
;	COMDAT ??_R2CObject@@8
; File f:\program files\microsoft visual studio 8\vc\atlmfc\include\afxcmn.inl
rdata$r	SEGMENT
??_R2CObject@@8 DD FLAT:??_R1A@?0A@EA@CObject@@8	; CObject::`RTTI Base Class Array'
rdata$r	ENDS
;	COMDAT ??_R3CObject@@8
rdata$r	SEGMENT
??_R3CObject@@8 DD 00H					; CObject::`RTTI Class Hierarchy Descriptor'
	DD	00H
	DD	01H
	DD	FLAT:??_R2CObject@@8
rdata$r	ENDS
;	COMDAT ??_R0?AVCObject@@@8
_DATA	SEGMENT
??_R0?AVCObject@@@8 DD FLAT:??_7type_info@@6B@		; CObject `RTTI Type Descriptor'
	DD	00H
	DB	'.?AVCObject@@', 00H
_DATA	ENDS
;	COMDAT ??_R1A@?0A@EA@CObject@@8
rdata$r	SEGMENT
??_R1A@?0A@EA@CObject@@8 DD FLAT:??_R0?AVCObject@@@8	; CObject::`RTTI Base Class Descriptor at (0,-1,0,64)'
	DD	00H
	DD	00H
	DD	0ffffffffH
	DD	00H
	DD	040H
	DD	FLAT:??_R3CObject@@8
rdata$r	ENDS
;	COMDAT ??_R2CCmdTarget@@8
rdata$r	SEGMENT
??_R2CCmdTarget@@8 DD FLAT:??_R1A@?0A@EA@CCmdTarget@@8	; CCmdTarget::`RTTI Base Class Array'
	DD	FLAT:??_R1A@?0A@EA@CObject@@8
rdata$r	ENDS
;	COMDAT ??_R3CCmdTarget@@8
rdata$r	SEGMENT
??_R3CCmdTarget@@8 DD 00H				; CCmdTarget::`RTTI Class Hierarchy Descriptor'
	DD	00H
	DD	02H
	DD	FLAT:??_R2CCmdTarget@@8
rdata$r	ENDS
;	COMDAT ??_R0?AVCCmdTarget@@@8
_DATA	SEGMENT
??_R0?AVCCmdTarget@@@8 DD FLAT:??_7type_info@@6B@	; CCmdTarget `RTTI Type Descriptor'
	DD	00H
	DB	'.?AVCCmdTarget@@', 00H
_DATA	ENDS
;	COMDAT ??_R1A@?0A@EA@CCmdTarget@@8
rdata$r	SEGMENT
??_R1A@?0A@EA@CCmdTarget@@8 DD FLAT:??_R0?AVCCmdTarget@@@8 ; CCmdTarget::`RTTI Base Class Descriptor at (0,-1,0,64)'
	DD	01H
	DD	00H
	DD	0ffffffffH
	DD	00H
	DD	040H
	DD	FLAT:??_R3CCmdTarget@@8
rdata$r	ENDS
;	COMDAT ??_R2CWnd@@8
rdata$r	SEGMENT
??_R2CWnd@@8 DD	FLAT:??_R1A@?0A@EA@CWnd@@8		; CWnd::`RTTI Base Class Array'
	DD	FLAT:??_R1A@?0A@EA@CCmdTarget@@8
	DD	FLAT:??_R1A@?0A@EA@CObject@@8
rdata$r	ENDS
;	COMDAT ??_R3CWnd@@8
rdata$r	SEGMENT
??_R3CWnd@@8 DD	00H					; CWnd::`RTTI Class Hierarchy Descriptor'
	DD	00H
	DD	03H
	DD	FLAT:??_R2CWnd@@8
rdata$r	ENDS
;	COMDAT ??_R0?AVCWnd@@@8
_DATA	SEGMENT
??_R0?AVCWnd@@@8 DD FLAT:??_7type_info@@6B@		; CWnd `RTTI Type Descriptor'
	DD	00H
	DB	'.?AVCWnd@@', 00H
_DATA	ENDS
;	COMDAT ??_R1A@?0A@EA@CWnd@@8
rdata$r	SEGMENT
??_R1A@?0A@EA@CWnd@@8 DD FLAT:??_R0?AVCWnd@@@8		; CWnd::`RTTI Base Class Descriptor at (0,-1,0,64)'
	DD	02H
	DD	00H
	DD	0ffffffffH
	DD	00H
	DD	040H
	DD	FLAT:??_R3CWnd@@8
rdata$r	ENDS
;	COMDAT ??_R1A@?0A@EA@CListCtrl@@8
rdata$r	SEGMENT
??_R1A@?0A@EA@CListCtrl@@8 DD FLAT:??_R0?AVCListCtrl@@@8 ; CListCtrl::`RTTI Base Class Descriptor at (0,-1,0,64)'
	DD	03H
	DD	00H
	DD	0ffffffffH
	DD	00H
	DD	040H
	DD	FLAT:??_R3CListCtrl@@8
rdata$r	ENDS
;	COMDAT ??_R2CListCtrl@@8
rdata$r	SEGMENT
??_R2CListCtrl@@8 DD FLAT:??_R1A@?0A@EA@CListCtrl@@8	; CListCtrl::`RTTI Base Class Array'
	DD	FLAT:??_R1A@?0A@EA@CWnd@@8
	DD	FLAT:??_R1A@?0A@EA@CCmdTarget@@8
	DD	FLAT:??_R1A@?0A@EA@CObject@@8
rdata$r	ENDS
;	COMDAT ??_R3CListCtrl@@8
rdata$r	SEGMENT
??_R3CListCtrl@@8 DD 00H				; CListCtrl::`RTTI Class Hierarchy Descriptor'
	DD	00H
	DD	04H
	DD	FLAT:??_R2CListCtrl@@8
rdata$r	ENDS
;	COMDAT ??_R0?AVCListCtrl@@@8
_DATA	SEGMENT
??_R0?AVCListCtrl@@@8 DD FLAT:??_7type_info@@6B@	; CListCtrl `RTTI Type Descriptor'
	DD	00H
	DB	'.?AVCListCtrl@@', 00H
_DATA	ENDS
;	COMDAT ??_R4CListCtrl@@6B@
rdata$r	SEGMENT
??_R4CListCtrl@@6B@ DD 00H				; CListCtrl::`RTTI Complete Object Locator'
	DD	00H
	DD	00H
	DD	FLAT:??_R0?AVCListCtrl@@@8
	DD	FLAT:??_R3CListCtrl@@8
rdata$r	ENDS
;	COMDAT ??_7CListCtrl@@6B@
CONST	SEGMENT
??_7CListCtrl@@6B@ DD FLAT:??_R4CListCtrl@@6B@		; CListCtrl::`vftable'
	DD	FLAT:?GetRuntimeClass@CListCtrl@@UBEPAUCRuntimeClass@@XZ
	DD	FLAT:??_ECListCtrl@@UAEPAXI@Z
	DD	FLAT:?Serialize@CObject@@UAEXAAVCArchive@@@Z
	DD	FLAT:?AssertValid@CObject@@UBEXXZ
	DD	FLAT:?Dump@CObject@@UBEXAAVCDumpContext@@@Z
	DD	FLAT:?OnCmdMsg@CCmdTarget@@UAEHIHPAXPAUAFX_CMDHANDLERINFO@@@Z
	DD	FLAT:?OnFinalRelease@CWnd@@UAEXXZ
	DD	FLAT:?IsInvokeAllowed@CCmdTarget@@UAEHJ@Z
	DD	FLAT:?GetDispatchIID@CCmdTarget@@UAEHPAU_GUID@@@Z
	DD	FLAT:?GetTypeInfoCount@CCmdTarget@@UAEIXZ
	DD	FLAT:?GetTypeLibCache@CCmdTarget@@UAEPAVCTypeLibCache@@XZ
	DD	FLAT:?GetTypeLib@CCmdTarget@@UAEJKPAPAUITypeLib@@@Z
	DD	FLAT:?GetMessageMap@CListCtrl@@MBEPBUAFX_MSGMAP@@XZ
	DD	FLAT:?GetCommandMap@CCmdTarget@@MBEPBUAFX_OLECMDMAP@@XZ
	DD	FLAT:?GetDispatchMap@CCmdTarget@@MBEPBUAFX_DISPMAP@@XZ
	DD	FLAT:?GetConnectionMap@CCmdTarget@@MBEPBUAFX_CONNECTIONMAP@@XZ
	DD	FLAT:?GetInterfaceMap@CWnd@@MBEPBUAFX_INTERFACEMAP@@XZ
	DD	FLAT:?GetEventSinkMap@CCmdTarget@@MBEPBUAFX_EVENTSINKMAP@@XZ
	DD	FLAT:?OnCreateAggregates@CCmdTarget@@UAEHXZ
	DD	FLAT:?GetInterfaceHook@CCmdTarget@@UAEPAUIUnknown@@PBX@Z
	DD	FLAT:?GetExtraConnectionPoints@CCmdTarget@@MAEHPAVCPtrArray@@@Z
	DD	FLAT:?GetConnectionHook@CCmdTarget@@MAEPAUIConnectionPoint@@ABU_GUID@@@Z
	DD	FLAT:?PreSubclassWindow@CWnd@@UAEXXZ
	DD	FLAT:?Create@CWnd@@UAEHPBD0KABUtagRECT@@PAV1@IPAUCCreateContext@@@Z
	DD	FLAT:?CreateEx@CWnd@@UAEHKPBD0KABUtagRECT@@PAV1@IPAX@Z
	DD	FLAT:?CreateEx@CWnd@@UAEHKPBD0KHHHHPAUHWND__@@PAUHMENU__@@PAX@Z
	DD	FLAT:?DestroyWindow@CWnd@@UAEHXZ
	DD	FLAT:?PreCreateWindow@CWnd@@UAEHAAUtagCREATESTRUCTA@@@Z
	DD	FLAT:?CalcWindowRect@CWnd@@UAEXPAUtagRECT@@I@Z
	DD	FLAT:?OnToolHitTest@CWnd@@UBEHVCPoint@@PAUtagTOOLINFOA@@@Z
	DD	FLAT:?GetScrollBarCtrl@CWnd@@UBEPAVCScrollBar@@H@Z
	DD	FLAT:?WinHelpA@CWnd@@UAEXKI@Z
	DD	FLAT:?HtmlHelpA@CWnd@@UAEXKI@Z
	DD	FLAT:?WinHelpInternal@CWnd@@UAEXKI@Z
	DD	FLAT:?ContinueModal@CWnd@@UAEHXZ
	DD	FLAT:?EndModalLoop@CWnd@@UAEXH@Z
	DD	FLAT:?EnsureStdObj@CWnd@@UAEJXZ
	DD	FLAT:?get_accParent@CWnd@@UAEJPAPAUIDispatch@@@Z
	DD	FLAT:?get_accChildCount@CWnd@@UAEJPAJ@Z
	DD	FLAT:?get_accChild@CWnd@@UAEJUtagVARIANT@@PAPAUIDispatch@@@Z
	DD	FLAT:?get_accName@CWnd@@UAEJUtagVARIANT@@PAPA_W@Z
	DD	FLAT:?get_accValue@CWnd@@UAEJUtagVARIANT@@PAPA_W@Z
	DD	FLAT:?get_accDescription@CWnd@@UAEJUtagVARIANT@@PAPA_W@Z
	DD	FLAT:?get_accRole@CWnd@@UAEJUtagVARIANT@@PAU2@@Z
	DD	FLAT:?get_accState@CWnd@@UAEJUtagVARIANT@@PAU2@@Z
	DD	FLAT:?get_accHelp@CWnd@@UAEJUtagVARIANT@@PAPA_W@Z
	DD	FLAT:?get_accHelpTopic@CWnd@@UAEJPAPA_WUtagVARIANT@@PAJ@Z
	DD	FLAT:?get_accKeyboardShortcut@CWnd@@UAEJUtagVARIANT@@PAPA_W@Z
	DD	FLAT:?get_accFocus@CWnd@@UAEJPAUtagVARIANT@@@Z
	DD	FLAT:?get_accSelection@CWnd@@UAEJPAUtagVARIANT@@@Z
	DD	FLAT:?get_accDefaultAction@CWnd@@UAEJUtagVARIANT@@PAPA_W@Z
	DD	FLAT:?accSelect@CWnd@@UAEJJUtagVARIANT@@@Z
	DD	FLAT:?accLocation@CWnd@@UAEJPAJ000UtagVARIANT@@@Z
	DD	FLAT:?accNavigate@CWnd@@UAEJJUtagVARIANT@@PAU2@@Z
	DD	FLAT:?accHitTest@CWnd@@UAEJJJPAUtagVARIANT@@@Z
	DD	FLAT:?accDoDefaultAction@CWnd@@UAEJUtagVARIANT@@@Z
	DD	FLAT:?put_accName@CWnd@@UAEJUtagVARIANT@@PA_W@Z
	DD	FLAT:?put_accValue@CWnd@@UAEJUtagVARIANT@@PA_W@Z
	DD	FLAT:?SetProxy@CWnd@@UAEJPAUIAccessibleProxy@@@Z
	DD	FLAT:?CreateAccessibleProxy@CWnd@@UAEJIJPAJ@Z
	DD	FLAT:?OnCommand@CWnd@@MAEHIJ@Z
	DD	FLAT:?OnNotify@CWnd@@MAEHIJPAJ@Z
	DD	FLAT:?GetSuperWndProcAddr@CWnd@@MAEPAP6GJPAUHWND__@@IIJ@ZXZ
	DD	FLAT:?DoDataExchange@CWnd@@MAEXPAVCDataExchange@@@Z
	DD	FLAT:?BeginModalState@CWnd@@UAEXXZ
	DD	FLAT:?EndModalState@CWnd@@UAEXXZ
	DD	FLAT:?PreTranslateMessage@CWnd@@UAEHPAUtagMSG@@@Z
	DD	FLAT:?OnAmbientProperty@CWnd@@UAEHPAVCOleControlSite@@JPAUtagVARIANT@@@Z
	DD	FLAT:?WindowProc@CWnd@@MAEJIIJ@Z
	DD	FLAT:?OnWndMsg@CWnd@@MAEHIIJPAJ@Z
	DD	FLAT:?DefWindowProcA@CWnd@@MAEJIIJ@Z
	DD	FLAT:?PostNcDestroy@CWnd@@MAEXXZ
	DD	FLAT:?OnChildNotify@CListCtrl@@MAEHIIJPAJ@Z
	DD	FLAT:?CheckAutoCenter@CWnd@@UAEHXZ
	DD	FLAT:?IsFrameWnd@CWnd@@UBEHXZ
	DD	FLAT:?CreateControlContainer@CWnd@@MAEHPAPAVCOleControlContainer@@@Z
	DD	FLAT:?CreateControlSite@CWnd@@MAEHPAVCOleControlContainer@@PAPAVCOleControlSite@@IABU_GUID@@@Z
	DD	FLAT:?SetOccDialogInfo@CWnd@@MAEHPAU_AFX_OCC_DIALOG_INFO@@@Z
	DD	FLAT:?GetOccDialogInfo@CWnd@@MAEPAU_AFX_OCC_DIALOG_INFO@@XZ
	DD	FLAT:?DrawItem@CListCtrl@@UAEXPAUtagDRAWITEMSTRUCT@@@Z
; Function compile flags: /Ogtpy
CONST	ENDS
;	COMDAT ??0CListCtrl@@QAE@XZ
_TEXT	SEGMENT
??0CListCtrl@@QAE@XZ PROC				; CListCtrl::CListCtrl, COMDAT
; _this$ = ecx

; 126  : 	{ }

	push	esi
	mov	esi, ecx
	call	??0CWnd@@QAE@XZ				; CWnd::CWnd
	mov	DWORD PTR [esi], OFFSET ??_7CListCtrl@@6B@
	mov	eax, esi
	pop	esi
	ret	0
??0CListCtrl@@QAE@XZ ENDP				; CListCtrl::CListCtrl
_TEXT	ENDS
PUBLIC	?InsertItem@CListCtrl@@QAEHHPBD@Z		; CListCtrl::InsertItem
EXTRN	?InsertItem@CListCtrl@@QAEHIHPBDIIHJ@Z:PROC	; CListCtrl::InsertItem
; Function compile flags: /Ogtpy
;	COMDAT ?InsertItem@CListCtrl@@QAEHHPBD@Z
_TEXT	SEGMENT
_nItem$ = 8						; size = 4
_lpszItem$ = 12						; size = 4
?InsertItem@CListCtrl@@QAEHHPBD@Z PROC			; CListCtrl::InsertItem, COMDAT
; _this$ = ecx

; 150  : 	{ ASSERT(::IsWindow(m_hWnd)); return InsertItem(LVIF_TEXT, nItem, lpszItem, 0, 0, 0, 0); }

	mov	eax, DWORD PTR _lpszItem$[esp-4]
	mov	edx, DWORD PTR _nItem$[esp-4]
	push	0
	push	0
	push	0
	push	0
	push	eax
	push	edx
	push	1
	call	?InsertItem@CListCtrl@@QAEHIHPBDIIHJ@Z	; CListCtrl::InsertItem
	ret	8
?InsertItem@CListCtrl@@QAEHHPBD@Z ENDP			; CListCtrl::InsertItem
_TEXT	ENDS
PUBLIC	?DeleteItem@CListCtrl@@QAEHH@Z			; CListCtrl::DeleteItem
EXTRN	__imp__SendMessageA@16:PROC
; Function compile flags: /Ogtpy
;	COMDAT ?DeleteItem@CListCtrl@@QAEHH@Z
_TEXT	SEGMENT
_nItem$ = 8						; size = 4
?DeleteItem@CListCtrl@@QAEHH@Z PROC			; CListCtrl::DeleteItem, COMDAT
; _this$ = ecx

; 154  : 	{ ASSERT(::IsWindow(m_hWnd)); return (BOOL) ::SendMessage(m_hWnd, LVM_DELETEITEM, nItem, 0L); }

	mov	eax, DWORD PTR _nItem$[esp-4]
	mov	ecx, DWORD PTR [ecx+32]
	push	0
	push	eax
	push	4104					; 00001008H
	push	ecx
	call	DWORD PTR __imp__SendMessageA@16
	ret	4
?DeleteItem@CListCtrl@@QAEHH@Z ENDP			; CListCtrl::DeleteItem
_TEXT	ENDS
PUBLIC	?GetSelectionMark@CListCtrl@@QAEHXZ		; CListCtrl::GetSelectionMark
; Function compile flags: /Ogtpy
; File f:\program files\microsoft visual studio 8\vc\atlmfc\include\afxcmn2.inl
;	COMDAT ?GetSelectionMark@CListCtrl@@QAEHXZ
_TEXT	SEGMENT
?GetSelectionMark@CListCtrl@@QAEHXZ PROC		; CListCtrl::GetSelectionMark, COMDAT
; _this$ = ecx

; 145  : 	{ ASSERT(::IsWindow(m_hWnd)); return (int) ::SendMessage(m_hWnd, LVM_GETSELECTIONMARK, 0, 0); }

	mov	eax, DWORD PTR [ecx+32]
	push	0
	push	0
	push	4162					; 00001042H
	push	eax
	call	DWORD PTR __imp__SendMessageA@16
	ret	0
?GetSelectionMark@CListCtrl@@QAEHXZ ENDP		; CListCtrl::GetSelectionMark
_TEXT	ENDS
PUBLIC	??_C@_00CNPNBAHC@?$AA@				; `string'
PUBLIC	??_7CEditConfig@@6B@				; CEditConfig::`vftable'
PUBLIC	??0CEditConfig@@QAE@PAVCSmartTrackerClass@@PAVCWnd@@@Z ; CEditConfig::CEditConfig
PUBLIC	??_R4CEditConfig@@6B@				; CEditConfig::`RTTI Complete Object Locator'
PUBLIC	??_R0?AVCEditConfig@@@8				; CEditConfig `RTTI Type Descriptor'
PUBLIC	??_R3CEditConfig@@8				; CEditConfig::`RTTI Class Hierarchy Descriptor'
PUBLIC	??_R2CEditConfig@@8				; CEditConfig::`RTTI Base Class Array'
PUBLIC	??_R1A@?0A@EA@CEditConfig@@8			; CEditConfig::`RTTI Base Class Descriptor at (0,-1,0,64)'
PUBLIC	??_R1A@?0A@EA@CDialog@@8			; CDialog::`RTTI Base Class Descriptor at (0,-1,0,64)'
PUBLIC	??_R0?AVCDialog@@@8				; CDialog `RTTI Type Descriptor'
PUBLIC	??_R3CDialog@@8					; CDialog::`RTTI Class Hierarchy Descriptor'
PUBLIC	??_R2CDialog@@8					; CDialog::`RTTI Base Class Array'
PUBLIC	?GetMessageMap@CEditConfig@@MBEPBUAFX_MSGMAP@@XZ ; CEditConfig::GetMessageMap
PUBLIC	?DoDataExchange@CEditConfig@@MAEXPAVCDataExchange@@@Z ; CEditConfig::DoDataExchange
PUBLIC	?Create@CDialog@@UAEHIPAVCWnd@@@Z		; CDialog::Create
PUBLIC	?OnInitDialog@CEditConfig@@MAEHXZ		; CEditConfig::OnInitDialog
EXTRN	__imp_??1?$CStringT@DV?$StrTraitMFC_DLL@DV?$ChTraitsCRT@D@ATL@@@@@ATL@@QAE@XZ:PROC
EXTRN	??1CListCtrl@@UAE@XZ:PROC			; CListCtrl::~CListCtrl
EXTRN	??1CDialog@@UAE@XZ:PROC				; CDialog::~CDialog
EXTRN	__imp_??4?$CStringT@DV?$StrTraitMFC_DLL@DV?$ChTraitsCRT@D@ATL@@@@@ATL@@QAEAAV01@PBD@Z:PROC
EXTRN	__imp_??0?$CStringT@DV?$StrTraitMFC_DLL@DV?$ChTraitsCRT@D@ATL@@@@@ATL@@QAE@XZ:PROC
EXTRN	??0CDialog@@QAE@IPAVCWnd@@@Z:PROC		; CDialog::CDialog
EXTRN	___security_cookie:DWORD
EXTRN	___CxxFrameHandler3:PROC
EXTRN	@__security_check_cookie@4:PROC
EXTRN	?GetRuntimeClass@CDialog@@UBEPAUCRuntimeClass@@XZ:PROC ; CDialog::GetRuntimeClass
EXTRN	??_ECEditConfig@@UAEPAXI@Z:PROC			; CEditConfig::`vector deleting destructor'
EXTRN	?OnCmdMsg@CDialog@@UAEHIHPAXPAUAFX_CMDHANDLERINFO@@@Z:PROC ; CDialog::OnCmdMsg
EXTRN	?PreTranslateMessage@CDialog@@UAEHPAUtagMSG@@@Z:PROC ; CDialog::PreTranslateMessage
EXTRN	?OnChildNotify@CWnd@@MAEHIIJPAJ@Z:PROC		; CWnd::OnChildNotify
EXTRN	?CheckAutoCenter@CDialog@@UAEHXZ:PROC		; CDialog::CheckAutoCenter
EXTRN	?SetOccDialogInfo@CDialog@@MAEHPAU_AFX_OCC_DIALOG_INFO@@@Z:PROC ; CDialog::SetOccDialogInfo
EXTRN	?GetOccDialogInfo@CDialog@@MAEPAU_AFX_OCC_DIALOG_INFO@@XZ:PROC ; CDialog::GetOccDialogInfo
EXTRN	?Create@CDialog@@UAEHPBDPAVCWnd@@@Z:PROC	; CDialog::Create
EXTRN	?CreateIndirect@CDialog@@UAEHPAXPAVCWnd@@@Z:PROC ; CDialog::CreateIndirect
EXTRN	?CreateIndirect@CDialog@@UAEHPBUDLGTEMPLATE@@PAVCWnd@@PAX@Z:PROC ; CDialog::CreateIndirect
EXTRN	?DoModal@CDialog@@UAEHXZ:PROC			; CDialog::DoModal
EXTRN	?OnSetFont@CDialog@@UAEXPAVCFont@@@Z:PROC	; CDialog::OnSetFont
EXTRN	?OnOK@CDialog@@MAEXXZ:PROC			; CDialog::OnOK
EXTRN	?OnCancel@CDialog@@MAEXXZ:PROC			; CDialog::OnCancel
EXTRN	?PreInitDialog@CDialog@@MAEXXZ:PROC		; CDialog::PreInitDialog
;	COMDAT ??_R2CDialog@@8
; File f:\program files\microsoft visual studio 8\vc\atlmfc\include\afxcmn.inl
rdata$r	SEGMENT
??_R2CDialog@@8 DD FLAT:??_R1A@?0A@EA@CDialog@@8	; CDialog::`RTTI Base Class Array'
	DD	FLAT:??_R1A@?0A@EA@CWnd@@8
	DD	FLAT:??_R1A@?0A@EA@CCmdTarget@@8
	DD	FLAT:??_R1A@?0A@EA@CObject@@8
rdata$r	ENDS
;	COMDAT ??_R3CDialog@@8
rdata$r	SEGMENT
??_R3CDialog@@8 DD 00H					; CDialog::`RTTI Class Hierarchy Descriptor'
	DD	00H
	DD	04H
	DD	FLAT:??_R2CDialog@@8
rdata$r	ENDS
;	COMDAT ??_R0?AVCDialog@@@8
_DATA	SEGMENT
??_R0?AVCDialog@@@8 DD FLAT:??_7type_info@@6B@		; CDialog `RTTI Type Descriptor'
	DD	00H
	DB	'.?AVCDialog@@', 00H
_DATA	ENDS
;	COMDAT ??_R1A@?0A@EA@CDialog@@8
rdata$r	SEGMENT
??_R1A@?0A@EA@CDialog@@8 DD FLAT:??_R0?AVCDialog@@@8	; CDialog::`RTTI Base Class Descriptor at (0,-1,0,64)'
	DD	03H
	DD	00H
	DD	0ffffffffH
	DD	00H
	DD	040H
	DD	FLAT:??_R3CDialog@@8
rdata$r	ENDS
;	COMDAT ??_R1A@?0A@EA@CEditConfig@@8
rdata$r	SEGMENT
??_R1A@?0A@EA@CEditConfig@@8 DD FLAT:??_R0?AVCEditConfig@@@8 ; CEditConfig::`RTTI Base Class Descriptor at (0,-1,0,64)'
	DD	04H
	DD	00H
	DD	0ffffffffH
	DD	00H
	DD	040H
	DD	FLAT:??_R3CEditConfig@@8
rdata$r	ENDS
;	COMDAT ??_R2CEditConfig@@8
rdata$r	SEGMENT
??_R2CEditConfig@@8 DD FLAT:??_R1A@?0A@EA@CEditConfig@@8 ; CEditConfig::`RTTI Base Class Array'
	DD	FLAT:??_R1A@?0A@EA@CDialog@@8
	DD	FLAT:??_R1A@?0A@EA@CWnd@@8
	DD	FLAT:??_R1A@?0A@EA@CCmdTarget@@8
	DD	FLAT:??_R1A@?0A@EA@CObject@@8
rdata$r	ENDS
;	COMDAT ??_R3CEditConfig@@8
rdata$r	SEGMENT
??_R3CEditConfig@@8 DD 00H				; CEditConfig::`RTTI Class Hierarchy Descriptor'
	DD	00H
	DD	05H
	DD	FLAT:??_R2CEditConfig@@8
rdata$r	ENDS
;	COMDAT ??_R0?AVCEditConfig@@@8
_DATA	SEGMENT
??_R0?AVCEditConfig@@@8 DD FLAT:??_7type_info@@6B@	; CEditConfig `RTTI Type Descriptor'
	DD	00H
	DB	'.?AVCEditConfig@@', 00H
_DATA	ENDS
;	COMDAT ??_R4CEditConfig@@6B@
rdata$r	SEGMENT
??_R4CEditConfig@@6B@ DD 00H				; CEditConfig::`RTTI Complete Object Locator'
	DD	00H
	DD	00H
	DD	FLAT:??_R0?AVCEditConfig@@@8
	DD	FLAT:??_R3CEditConfig@@8
rdata$r	ENDS
;	COMDAT ??_C@_00CNPNBAHC@?$AA@
CONST	SEGMENT
??_C@_00CNPNBAHC@?$AA@ DB 00H				; `string'
CONST	ENDS
;	COMDAT ??_7CEditConfig@@6B@
CONST	SEGMENT
??_7CEditConfig@@6B@ DD FLAT:??_R4CEditConfig@@6B@	; CEditConfig::`vftable'
	DD	FLAT:?GetRuntimeClass@CDialog@@UBEPAUCRuntimeClass@@XZ
	DD	FLAT:??_ECEditConfig@@UAEPAXI@Z
	DD	FLAT:?Serialize@CObject@@UAEXAAVCArchive@@@Z
	DD	FLAT:?AssertValid@CObject@@UBEXXZ
	DD	FLAT:?Dump@CObject@@UBEXAAVCDumpContext@@@Z
	DD	FLAT:?OnCmdMsg@CDialog@@UAEHIHPAXPAUAFX_CMDHANDLERINFO@@@Z
	DD	FLAT:?OnFinalRelease@CWnd@@UAEXXZ
	DD	FLAT:?IsInvokeAllowed@CCmdTarget@@UAEHJ@Z
	DD	FLAT:?GetDispatchIID@CCmdTarget@@UAEHPAU_GUID@@@Z
	DD	FLAT:?GetTypeInfoCount@CCmdTarget@@UAEIXZ
	DD	FLAT:?GetTypeLibCache@CCmdTarget@@UAEPAVCTypeLibCache@@XZ
	DD	FLAT:?GetTypeLib@CCmdTarget@@UAEJKPAPAUITypeLib@@@Z
	DD	FLAT:?GetMessageMap@CEditConfig@@MBEPBUAFX_MSGMAP@@XZ
	DD	FLAT:?GetCommandMap@CCmdTarget@@MBEPBUAFX_OLECMDMAP@@XZ
	DD	FLAT:?GetDispatchMap@CCmdTarget@@MBEPBUAFX_DISPMAP@@XZ
	DD	FLAT:?GetConnectionMap@CCmdTarget@@MBEPBUAFX_CONNECTIONMAP@@XZ
	DD	FLAT:?GetInterfaceMap@CWnd@@MBEPBUAFX_INTERFACEMAP@@XZ
	DD	FLAT:?GetEventSinkMap@CCmdTarget@@MBEPBUAFX_EVENTSINKMAP@@XZ
	DD	FLAT:?OnCreateAggregates@CCmdTarget@@UAEHXZ
	DD	FLAT:?GetInterfaceHook@CCmdTarget@@UAEPAUIUnknown@@PBX@Z
	DD	FLAT:?GetExtraConnectionPoints@CCmdTarget@@MAEHPAVCPtrArray@@@Z
	DD	FLAT:?GetConnectionHook@CCmdTarget@@MAEPAUIConnectionPoint@@ABU_GUID@@@Z
	DD	FLAT:?PreSubclassWindow@CWnd@@UAEXXZ
	DD	FLAT:?Create@CWnd@@UAEHPBD0KABUtagRECT@@PAV1@IPAUCCreateContext@@@Z
	DD	FLAT:?CreateEx@CWnd@@UAEHKPBD0KABUtagRECT@@PAV1@IPAX@Z
	DD	FLAT:?CreateEx@CWnd@@UAEHKPBD0KHHHHPAUHWND__@@PAUHMENU__@@PAX@Z
	DD	FLAT:?DestroyWindow@CWnd@@UAEHXZ
	DD	FLAT:?PreCreateWindow@CWnd@@UAEHAAUtagCREATESTRUCTA@@@Z
	DD	FLAT:?CalcWindowRect@CWnd@@UAEXPAUtagRECT@@I@Z
	DD	FLAT:?OnToolHitTest@CWnd@@UBEHVCPoint@@PAUtagTOOLINFOA@@@Z
	DD	FLAT:?GetScrollBarCtrl@CWnd@@UBEPAVCScrollBar@@H@Z
	DD	FLAT:?WinHelpA@CWnd@@UAEXKI@Z
	DD	FLAT:?HtmlHelpA@CWnd@@UAEXKI@Z
	DD	FLAT:?WinHelpInternal@CWnd@@UAEXKI@Z
	DD	FLAT:?ContinueModal@CWnd@@UAEHXZ
	DD	FLAT:?EndModalLoop@CWnd@@UAEXH@Z
	DD	FLAT:?EnsureStdObj@CWnd@@UAEJXZ
	DD	FLAT:?get_accParent@CWnd@@UAEJPAPAUIDispatch@@@Z
	DD	FLAT:?get_accChildCount@CWnd@@UAEJPAJ@Z
	DD	FLAT:?get_accChild@CWnd@@UAEJUtagVARIANT@@PAPAUIDispatch@@@Z
	DD	FLAT:?get_accName@CWnd@@UAEJUtagVARIANT@@PAPA_W@Z
	DD	FLAT:?get_accValue@CWnd@@UAEJUtagVARIANT@@PAPA_W@Z
	DD	FLAT:?get_accDescription@CWnd@@UAEJUtagVARIANT@@PAPA_W@Z
	DD	FLAT:?get_accRole@CWnd@@UAEJUtagVARIANT@@PAU2@@Z
	DD	FLAT:?get_accState@CWnd@@UAEJUtagVARIANT@@PAU2@@Z
	DD	FLAT:?get_accHelp@CWnd@@UAEJUtagVARIANT@@PAPA_W@Z
	DD	FLAT:?get_accHelpTopic@CWnd@@UAEJPAPA_WUtagVARIANT@@PAJ@Z
	DD	FLAT:?get_accKeyboardShortcut@CWnd@@UAEJUtagVARIANT@@PAPA_W@Z
	DD	FLAT:?get_accFocus@CWnd@@UAEJPAUtagVARIANT@@@Z
	DD	FLAT:?get_accSelection@CWnd@@UAEJPAUtagVARIANT@@@Z
	DD	FLAT:?get_accDefaultAction@CWnd@@UAEJUtagVARIANT@@PAPA_W@Z
	DD	FLAT:?accSelect@CWnd@@UAEJJUtagVARIANT@@@Z
	DD	FLAT:?accLocation@CWnd@@UAEJPAJ000UtagVARIANT@@@Z
	DD	FLAT:?accNavigate@CWnd@@UAEJJUtagVARIANT@@PAU2@@Z
	DD	FLAT:?accHitTest@CWnd@@UAEJJJPAUtagVARIANT@@@Z
	DD	FLAT:?accDoDefaultAction@CWnd@@UAEJUtagVARIANT@@@Z
	DD	FLAT:?put_accName@CWnd@@UAEJUtagVARIANT@@PA_W@Z
	DD	FLAT:?put_accValue@CWnd@@UAEJUtagVARIANT@@PA_W@Z
	DD	FLAT:?SetProxy@CWnd@@UAEJPAUIAccessibleProxy@@@Z
	DD	FLAT:?CreateAccessibleProxy@CWnd@@UAEJIJPAJ@Z
	DD	FLAT:?OnCommand@CWnd@@MAEHIJ@Z
	DD	FLAT:?OnNotify@CWnd@@MAEHIJPAJ@Z
	DD	FLAT:?GetSuperWndProcAddr@CWnd@@MAEPAP6GJPAUHWND__@@IIJ@ZXZ
	DD	FLAT:?DoDataExchange@CEditConfig@@MAEXPAVCDataExchange@@@Z
	DD	FLAT:?BeginModalState@CWnd@@UAEXXZ
	DD	FLAT:?EndModalState@CWnd@@UAEXXZ
	DD	FLAT:?PreTranslateMessage@CDialog@@UAEHPAUtagMSG@@@Z
	DD	FLAT:?OnAmbientProperty@CWnd@@UAEHPAVCOleControlSite@@JPAUtagVARIANT@@@Z
	DD	FLAT:?WindowProc@CWnd@@MAEJIIJ@Z
	DD	FLAT:?OnWndMsg@CWnd@@MAEHIIJPAJ@Z
	DD	FLAT:?DefWindowProcA@CWnd@@MAEJIIJ@Z
	DD	FLAT:?PostNcDestroy@CWnd@@MAEXXZ
	DD	FLAT:?OnChildNotify@CWnd@@MAEHIIJPAJ@Z
	DD	FLAT:?CheckAutoCenter@CDialog@@UAEHXZ
	DD	FLAT:?IsFrameWnd@CWnd@@UBEHXZ
	DD	FLAT:?CreateControlContainer@CWnd@@MAEHPAPAVCOleControlContainer@@@Z
	DD	FLAT:?CreateControlSite@CWnd@@MAEHPAVCOleControlContainer@@PAPAVCOleControlSite@@IABU_GUID@@@Z
	DD	FLAT:?SetOccDialogInfo@CDialog@@MAEHPAU_AFX_OCC_DIALOG_INFO@@@Z
	DD	FLAT:?GetOccDialogInfo@CDialog@@MAEPAU_AFX_OCC_DIALOG_INFO@@XZ
	DD	FLAT:?Create@CDialog@@UAEHIPAVCWnd@@@Z
	DD	FLAT:?Create@CDialog@@UAEHPBDPAVCWnd@@@Z
	DD	FLAT:?CreateIndirect@CDialog@@UAEHPAXPAVCWnd@@@Z
	DD	FLAT:?CreateIndirect@CDialog@@UAEHPBUDLGTEMPLATE@@PAVCWnd@@PAX@Z
	DD	FLAT:?DoModal@CDialog@@UAEHXZ
	DD	FLAT:?OnInitDialog@CEditConfig@@MAEHXZ
	DD	FLAT:?OnSetFont@CDialog@@UAEXPAVCFont@@@Z
	DD	FLAT:?OnOK@CDialog@@MAEXXZ
	DD	FLAT:?OnCancel@CDialog@@MAEXXZ
	DD	FLAT:?PreInitDialog@CDialog@@MAEXXZ
CONST	ENDS
;	COMDAT xdata$x
xdata$x	SEGMENT
__unwindtable$??0CEditConfig@@QAE@PAVCSmartTrackerClass@@PAVCWnd@@@Z DD 0ffffffffH
	DD	FLAT:__unwindfunclet$??0CEditConfig@@QAE@PAVCSmartTrackerClass@@PAVCWnd@@@Z$0
	DD	00H
	DD	FLAT:__unwindfunclet$??0CEditConfig@@QAE@PAVCSmartTrackerClass@@PAVCWnd@@@Z$1
	DD	01H
	DD	FLAT:__unwindfunclet$??0CEditConfig@@QAE@PAVCSmartTrackerClass@@PAVCWnd@@@Z$2
__ehfuncinfo$??0CEditConfig@@QAE@PAVCSmartTrackerClass@@PAVCWnd@@@Z DD 019930522H
	DD	03H
	DD	FLAT:__unwindtable$??0CEditConfig@@QAE@PAVCSmartTrackerClass@@PAVCWnd@@@Z
	DD	2 DUP(00H)
	DD	2 DUP(00H)
	DD	00H
	DD	01H
; Function compile flags: /Ogtpy
; File d:\sysal2\smarttracker8.6\editconfig.cpp
xdata$x	ENDS
;	COMDAT ??0CEditConfig@@QAE@PAVCSmartTrackerClass@@PAVCWnd@@@Z
_TEXT	SEGMENT
_this$ = -16						; size = 4
__$EHRec$ = -12						; size = 12
_ptk$ = 8						; size = 4
_pParent$ = 12						; size = 4
??0CEditConfig@@QAE@PAVCSmartTrackerClass@@PAVCWnd@@@Z PROC ; CEditConfig::CEditConfig, COMDAT
; _this$ = ecx

; 24   : {

	push	-1
	push	__ehhandler$??0CEditConfig@@QAE@PAVCSmartTrackerClass@@PAVCWnd@@@Z
	mov	eax, DWORD PTR fs:0
	push	eax
	push	ecx
	push	esi
	push	edi
	mov	eax, DWORD PTR ___security_cookie
	xor	eax, esp
	push	eax
	lea	eax, DWORD PTR __$EHRec$[esp+28]
	mov	DWORD PTR fs:0, eax
	mov	esi, ecx
	mov	DWORD PTR _this$[esp+28], esi
	mov	eax, DWORD PTR _pParent$[esp+24]
	push	eax
	push	203					; 000000cbH
	call	??0CDialog@@QAE@IPAVCWnd@@@Z		; CDialog::CDialog
	lea	edi, DWORD PTR [esi+920]
	mov	ecx, edi
	mov	DWORD PTR __$EHRec$[esp+36], 0
	mov	DWORD PTR [esi], OFFSET ??_7CEditConfig@@6B@
	call	??0CWnd@@QAE@XZ				; CWnd::CWnd
	mov	DWORD PTR [edi], OFFSET ??_7CListCtrl@@6B@
	lea	edi, DWORD PTR [esi+1012]
	mov	ecx, edi
	call	DWORD PTR __imp_??0?$CStringT@DV?$StrTraitMFC_DLL@DV?$ChTraitsCRT@D@ATL@@@@@ATL@@QAE@XZ
	mov	ecx, DWORD PTR _ptk$[esp+24]
	mov	DWORD PTR [esi+1016], ecx

; 25   : 	//{{AFX_DATA_INIT(CEditConfig)
; 26   : 	m_TopLayer = 0;
; 27   : 	m_BottomLayer = 0;
; 28   : 	m_Triggers = _T("");

	push	OFFSET ??_C@_00CNPNBAHC@?$AA@
	mov	ecx, edi
	mov	BYTE PTR __$EHRec$[esp+40], 2
	mov	DWORD PTR [esi+1004], 0
	mov	DWORD PTR [esi+1008], 0
	call	DWORD PTR __imp_??4?$CStringT@DV?$StrTraitMFC_DLL@DV?$ChTraitsCRT@D@ATL@@@@@ATL@@QAEAAV01@PBD@Z

; 29   : 	//}}AFX_DATA_INIT
; 30   : }

	mov	eax, esi
	mov	ecx, DWORD PTR __$EHRec$[esp+28]
	mov	DWORD PTR fs:0, ecx
	pop	ecx
	pop	edi
	pop	esi
	add	esp, 16					; 00000010H
	ret	8
_TEXT	ENDS
;	COMDAT text$x
text$x	SEGMENT
__unwindfunclet$??0CEditConfig@@QAE@PAVCSmartTrackerClass@@PAVCWnd@@@Z$0:
	mov	ecx, DWORD PTR _this$[ebp]
	jmp	??1CDialog@@UAE@XZ			; CDialog::~CDialog
__unwindfunclet$??0CEditConfig@@QAE@PAVCSmartTrackerClass@@PAVCWnd@@@Z$1:
	mov	ecx, DWORD PTR _this$[ebp]
	add	ecx, 920				; 00000398H
	jmp	??1CListCtrl@@UAE@XZ			; CListCtrl::~CListCtrl
__unwindfunclet$??0CEditConfig@@QAE@PAVCSmartTrackerClass@@PAVCWnd@@@Z$2:
	mov	ecx, DWORD PTR _this$[ebp]
	add	ecx, 1012				; 000003f4H
	jmp	DWORD PTR __imp_??1?$CStringT@DV?$StrTraitMFC_DLL@DV?$ChTraitsCRT@D@ATL@@@@@ATL@@QAE@XZ
__ehhandler$??0CEditConfig@@QAE@PAVCSmartTrackerClass@@PAVCWnd@@@Z:
	mov	edx, DWORD PTR [esp+8]
	lea	eax, DWORD PTR [edx-12]
	mov	ecx, DWORD PTR [edx-16]
	xor	ecx, eax
	call	@__security_check_cookie@4
	mov	eax, OFFSET __ehfuncinfo$??0CEditConfig@@QAE@PAVCSmartTrackerClass@@PAVCWnd@@@Z
	jmp	___CxxFrameHandler3
text$x	ENDS
??0CEditConfig@@QAE@PAVCSmartTrackerClass@@PAVCWnd@@@Z ENDP ; CEditConfig::CEditConfig
PUBLIC	??1CEditConfig@@UAE@XZ				; CEditConfig::~CEditConfig
;	COMDAT xdata$x
xdata$x	SEGMENT
__unwindtable$??1CEditConfig@@UAE@XZ DD 0ffffffffH
	DD	FLAT:__unwindfunclet$??1CEditConfig@@UAE@XZ$0
__ehfuncinfo$??1CEditConfig@@UAE@XZ DD 019930522H
	DD	01H
	DD	FLAT:__unwindtable$??1CEditConfig@@UAE@XZ
	DD	2 DUP(00H)
	DD	2 DUP(00H)
	DD	00H
	DD	01H
; Function compile flags: /Ogtpy
xdata$x	ENDS
;	COMDAT ??1CEditConfig@@UAE@XZ
_TEXT	SEGMENT
_this$ = -16						; size = 4
__$EHRec$ = -12						; size = 12
??1CEditConfig@@UAE@XZ PROC				; CEditConfig::~CEditConfig, COMDAT
; _this$ = ecx
	push	-1
	push	__ehhandler$??1CEditConfig@@UAE@XZ
	mov	eax, DWORD PTR fs:0
	push	eax
	push	ecx
	push	esi
	mov	eax, DWORD PTR ___security_cookie
	xor	eax, esp
	push	eax
	lea	eax, DWORD PTR __$EHRec$[esp+24]
	mov	DWORD PTR fs:0, eax
	mov	esi, ecx
	mov	DWORD PTR _this$[esp+24], esi
	lea	ecx, DWORD PTR [esi+1012]
	mov	DWORD PTR __$EHRec$[esp+32], 0
	call	DWORD PTR __imp_??1?$CStringT@DV?$StrTraitMFC_DLL@DV?$ChTraitsCRT@D@ATL@@@@@ATL@@QAE@XZ
	lea	ecx, DWORD PTR [esi+920]
	call	??1CListCtrl@@UAE@XZ			; CListCtrl::~CListCtrl
	mov	ecx, esi
	mov	DWORD PTR __$EHRec$[esp+32], -1
	call	??1CDialog@@UAE@XZ			; CDialog::~CDialog
	mov	ecx, DWORD PTR __$EHRec$[esp+24]
	mov	DWORD PTR fs:0, ecx
	pop	ecx
	pop	esi
	add	esp, 16					; 00000010H
	ret	0
_TEXT	ENDS
;	COMDAT text$x
text$x	SEGMENT
__unwindfunclet$??1CEditConfig@@UAE@XZ$0:
	mov	ecx, DWORD PTR _this$[ebp]
	jmp	??1CDialog@@UAE@XZ			; CDialog::~CDialog
__ehhandler$??1CEditConfig@@UAE@XZ:
	mov	edx, DWORD PTR [esp+8]
	lea	eax, DWORD PTR [edx-8]
	mov	ecx, DWORD PTR [edx-12]
	xor	ecx, eax
	call	@__security_check_cookie@4
	mov	eax, OFFSET __ehfuncinfo$??1CEditConfig@@UAE@XZ
	jmp	___CxxFrameHandler3
text$x	ENDS
??1CEditConfig@@UAE@XZ ENDP				; CEditConfig::~CEditConfig
PUBLIC	??_C@_0CK@LELGFKIL@Triggers?5must?5be?5comma?9separated@ ; `string'
PUBLIC	??_C@_02DPKJAMEF@?$CFd?$AA@			; `string'
PUBLIC	??_C@_01IHBHIGKO@?0?$AA@			; `string'
PUBLIC	??_C@_0CL@DMGAHNOD@Bottom?5layer?5must?5be?5higher?5than@ ; `string'
PUBLIC	??_C@_0BA@DBPIAEMB@Too?5many?5trials?$AA@	; `string'
PUBLIC	??_C@_0M@HADJFCOK@Trial?5Error?$AA@		; `string'
PUBLIC	__$ArrayPad$
PUBLIC	?OnAdd@CEditConfig@@IAEXXZ			; CEditConfig::OnAdd
EXTRN	?SetItemText@CListCtrl@@QAEHHHPBD@Z:PROC	; CListCtrl::SetItemText
EXTRN	__imp__sprintf:PROC
EXTRN	__imp_??Y?$CStringT@DV?$StrTraitMFC_DLL@DV?$ChTraitsCRT@D@ATL@@@@@ATL@@QAEAAV01@ABV?$CSimpleStringT@D$00@1@@Z:PROC
EXTRN	__imp_??Y?$CStringT@DV?$StrTraitMFC_DLL@DV?$ChTraitsCRT@D@ATL@@@@@ATL@@QAEAAV01@PBD@Z:PROC
EXTRN	__imp_?Format@?$CStringT@DV?$StrTraitMFC_DLL@DV?$ChTraitsCRT@D@ATL@@@@@ATL@@QAAXPBDZZ:PROC
EXTRN	__imp__sscanf:PROC
EXTRN	__imp__strtok:PROC
EXTRN	__imp_??B?$CSimpleStringT@D$00@ATL@@QBEPBDXZ:PROC
EXTRN	?MessageBoxA@CWnd@@QAEHPBD0I@Z:PROC		; CWnd::MessageBoxA
EXTRN	?UpdateData@CWnd@@QAEHH@Z:PROC			; CWnd::UpdateData
;	COMDAT ??_C@_0CK@LELGFKIL@Triggers?5must?5be?5comma?9separated@
; File f:\program files\microsoft visual studio 8\vc\atlmfc\include\afxcmn.inl
CONST	SEGMENT
??_C@_0CK@LELGFKIL@Triggers?5must?5be?5comma?9separated@ DB 'Triggers mus'
	DB	't be comma-separated integers', 00H		; `string'
CONST	ENDS
;	COMDAT ??_C@_02DPKJAMEF@?$CFd?$AA@
CONST	SEGMENT
??_C@_02DPKJAMEF@?$CFd?$AA@ DB '%d', 00H		; `string'
CONST	ENDS
;	COMDAT ??_C@_01IHBHIGKO@?0?$AA@
CONST	SEGMENT
??_C@_01IHBHIGKO@?0?$AA@ DB ',', 00H			; `string'
CONST	ENDS
;	COMDAT ??_C@_0CL@DMGAHNOD@Bottom?5layer?5must?5be?5higher?5than@
CONST	SEGMENT
??_C@_0CL@DMGAHNOD@Bottom?5layer?5must?5be?5higher?5than@ DB 'Bottom laye'
	DB	'r must be higher than Top layer', 00H	; `string'
CONST	ENDS
;	COMDAT ??_C@_0BA@DBPIAEMB@Too?5many?5trials?$AA@
CONST	SEGMENT
??_C@_0BA@DBPIAEMB@Too?5many?5trials?$AA@ DB 'Too many trials', 00H ; `string'
CONST	ENDS
;	COMDAT ??_C@_0M@HADJFCOK@Trial?5Error?$AA@
CONST	SEGMENT
??_C@_0M@HADJFCOK@Trial?5Error?$AA@ DB 'Trial Error', 00H ; `string'
CONST	ENDS
;	COMDAT xdata$x
xdata$x	SEGMENT
__unwindtable$?OnAdd@CEditConfig@@IAEXXZ DD 0ffffffffH
	DD	FLAT:__unwindfunclet$?OnAdd@CEditConfig@@IAEXXZ$0
	DD	00H
	DD	FLAT:__unwindfunclet$?OnAdd@CEditConfig@@IAEXXZ$1
__ehfuncinfo$?OnAdd@CEditConfig@@IAEXXZ DD 019930522H
	DD	02H
	DD	FLAT:__unwindtable$?OnAdd@CEditConfig@@IAEXXZ
	DD	2 DUP(00H)
	DD	2 DUP(00H)
	DD	00H
	DD	01H
; Function compile flags: /Ogtpy
; File d:\sysal2\smarttracker8.6\editconfig.cpp
xdata$x	ENDS
;	COMDAT ?OnAdd@CEditConfig@@IAEXXZ
_TEXT	SEGMENT
_sub$ = -280						; size = 4
_tsub$ = -276						; size = 4
_tempstr$ = -272					; size = 256
__$ArrayPad$ = -16					; size = 4
__$EHRec$ = -12						; size = 12
?OnAdd@CEditConfig@@IAEXXZ PROC				; CEditConfig::OnAdd, COMDAT
; _this$ = ecx

; 109  : {

	push	-1
	push	__ehhandler$?OnAdd@CEditConfig@@IAEXXZ
	mov	eax, DWORD PTR fs:0
	push	eax
	sub	esp, 268				; 0000010cH
	mov	eax, DWORD PTR ___security_cookie
	xor	eax, esp
	mov	DWORD PTR __$ArrayPad$[esp+280], eax
	push	ebx
	push	ebp
	push	esi
	push	edi
	mov	eax, DWORD PTR ___security_cookie
	xor	eax, esp
	push	eax
	lea	eax, DWORD PTR __$EHRec$[esp+300]
	mov	DWORD PTR fs:0, eax

; 110  : 	// TODO: Add your control notification handler code here
; 111  : 	UpdateData();

	push	1
	mov	esi, ecx
	call	?UpdateData@CWnd@@QAEHH@Z		; CWnd::UpdateData

; 112  : 	if (C.TrialCount >= MAX_TRIALS)

	mov	eax, DWORD PTR [esi+148]
	cmp	eax, 16					; 00000010H
	jl	SHORT $LN10@OnAdd

; 113  : 	{
; 114  : 		MessageBox("Too many trials", "Trial Error");

	push	0
	push	OFFSET ??_C@_0M@HADJFCOK@Trial?5Error?$AA@
	push	OFFSET ??_C@_0BA@DBPIAEMB@Too?5many?5trials?$AA@
	mov	ecx, esi
	call	?MessageBoxA@CWnd@@QAEHPBD0I@Z		; CWnd::MessageBoxA

; 115  : 		return;

	jmp	$LN11@OnAdd
$LN10@OnAdd:

; 116  : 		};
; 117  : 	if (m_BottomLayer <= m_TopLayer)

	mov	ecx, DWORD PTR [esi+1004]
	cmp	DWORD PTR [esi+1008], ecx
	ja	SHORT $LN9@OnAdd

; 118  : 	{
; 119  : 		MessageBox("Bottom layer must be higher than Top layer", "Trial Error");

	push	0
	push	OFFSET ??_C@_0M@HADJFCOK@Trial?5Error?$AA@
	push	OFFSET ??_C@_0CL@DMGAHNOD@Bottom?5layer?5must?5be?5higher?5than@
	mov	ecx, esi
	call	?MessageBoxA@CWnd@@QAEHPBD0I@Z		; CWnd::MessageBoxA

; 120  : 		return;

	jmp	$LN11@OnAdd
$LN9@OnAdd:

; 121  : 		};
; 122  : 	C.Trials[C.TrialCount].TopLayer = m_TopLayer;

	imul	eax, 44					; 0000002cH
	mov	DWORD PTR [eax+esi+152], ecx

; 123  : 	C.Trials[C.TrialCount].BottomLayer = m_BottomLayer;

	mov	eax, DWORD PTR [esi+148]
	mov	ecx, DWORD PTR [esi+1008]
	imul	eax, 44					; 0000002cH
	mov	DWORD PTR [eax+esi+156], ecx

; 124  : 	char tempstr[256];
; 125  : 	CString sub;

	lea	ecx, DWORD PTR _sub$[esp+300]
	call	DWORD PTR __imp_??0?$CStringT@DV?$StrTraitMFC_DLL@DV?$ChTraitsCRT@D@ATL@@@@@ATL@@QAE@XZ
	xor	edi, edi

; 126  : 	CString tsub;

	lea	ecx, DWORD PTR _tsub$[esp+300]
	mov	DWORD PTR __$EHRec$[esp+308], edi
	call	DWORD PTR __imp_??0?$CStringT@DV?$StrTraitMFC_DLL@DV?$ChTraitsCRT@D@ATL@@@@@ATL@@QAE@XZ

; 127  : 	strcpy(tempstr, m_Triggers);

	lea	ecx, DWORD PTR [esi+1012]
	mov	BYTE PTR __$EHRec$[esp+308], 1
	call	DWORD PTR __imp_??B?$CSimpleStringT@D$00@ATL@@QBEPBDXZ
	lea	edx, DWORD PTR _tempstr$[esp+300]
$LL13@OnAdd:
	mov	cl, BYTE PTR [eax]
	mov	BYTE PTR [edx], cl
	add	eax, 1
	add	edx, 1
	test	cl, cl
	jne	SHORT $LL13@OnAdd

; 128  : 	char *str = strtok(tempstr, ",");

	mov	ebp, DWORD PTR __imp__strtok
	lea	edx, DWORD PTR _tempstr$[esp+300]
	push	OFFSET ??_C@_01IHBHIGKO@?0?$AA@
	push	edx
	call	ebp

; 129  : 	int i;
; 130  : 	for (i = 0; i < MAX_TRIGGERS && str; i++)

	mov	ebx, DWORD PTR __imp__sscanf
	add	esp, 8
	npad	5
$LL8@OnAdd:
	test	eax, eax
	je	$LN6@OnAdd

; 131  : 	{
; 132  : 		if (sscanf(str, "%d", &C.Trials[C.TrialCount].Triggers[i]) != 1)

	mov	ecx, DWORD PTR [esi+148]
	imul	ecx, 11					; 0000000bH
	add	ecx, edi
	lea	edx, DWORD PTR [esi+ecx*4+164]
	push	edx
	push	OFFSET ??_C@_02DPKJAMEF@?$CFd?$AA@
	push	eax
	call	ebx
	add	esp, 12					; 0000000cH
	cmp	eax, 1
	jne	$LN21@OnAdd

; 138  : 			}
; 139  : 		tsub.Format("%d", C.Trials[C.TrialCount].Triggers[i]);

	mov	eax, DWORD PTR [esi+148]
	imul	eax, 11					; 0000000bH
	add	eax, edi
	mov	ecx, DWORD PTR [esi+eax*4+164]
	push	ecx
	lea	edx, DWORD PTR _tsub$[esp+304]
	push	OFFSET ??_C@_02DPKJAMEF@?$CFd?$AA@
	push	edx
	call	DWORD PTR __imp_?Format@?$CStringT@DV?$StrTraitMFC_DLL@DV?$ChTraitsCRT@D@ATL@@@@@ATL@@QAAXPBDZZ
	add	esp, 12					; 0000000cH

; 140  : 		if (i > 0) sub += ",";

	test	edi, edi
	jle	SHORT $LN1@OnAdd
	push	OFFSET ??_C@_01IHBHIGKO@?0?$AA@
	lea	ecx, DWORD PTR _sub$[esp+304]
	call	DWORD PTR __imp_??Y?$CStringT@DV?$StrTraitMFC_DLL@DV?$ChTraitsCRT@D@ATL@@@@@ATL@@QAEAAV01@PBD@Z
$LN1@OnAdd:

; 141  : 		sub += tsub;

	lea	eax, DWORD PTR _tsub$[esp+300]
	push	eax
	lea	ecx, DWORD PTR _sub$[esp+304]
	call	DWORD PTR __imp_??Y?$CStringT@DV?$StrTraitMFC_DLL@DV?$ChTraitsCRT@D@ATL@@@@@ATL@@QAEAAV01@ABV?$CSimpleStringT@D$00@1@@Z

; 142  : 		str = strtok(0, ",");

	push	OFFSET ??_C@_01IHBHIGKO@?0?$AA@
	push	0
	call	ebp
	add	edi, 1
	add	esp, 8
	cmp	edi, 8
	jl	$LL8@OnAdd
$LN6@OnAdd:

; 143  : 		}
; 144  : 	C.Trials[C.TrialCount].TriggerCount = i;

	mov	eax, DWORD PTR [esi+148]
	imul	eax, 44					; 0000002cH

; 145  : 	sprintf(tempstr, "%d", C.Trials[C.TrialCount].TopLayer);

	mov	ebp, DWORD PTR __imp__sprintf
	mov	DWORD PTR [eax+esi+160], edi
	mov	ecx, DWORD PTR [esi+148]
	imul	ecx, 44					; 0000002cH
	mov	edx, DWORD PTR [ecx+esi+152]
	push	edx
	lea	eax, DWORD PTR _tempstr$[esp+304]
	push	OFFSET ??_C@_02DPKJAMEF@?$CFd?$AA@
	push	eax
	call	ebp

; 146  : 	m_TrialList.InsertItem(C.TrialCount, tempstr);

	mov	edx, DWORD PTR [esi+148]
	add	esp, 12					; 0000000cH
	push	0
	push	0
	push	0
	push	0
	lea	ecx, DWORD PTR _tempstr$[esp+316]
	push	ecx
	push	edx
	lea	edi, DWORD PTR [esi+920]
	push	1
	mov	ecx, edi
	call	?InsertItem@CListCtrl@@QAEHIHPBDIIHJ@Z	; CListCtrl::InsertItem

; 147  : 	sprintf(tempstr, "%d", C.Trials[C.TrialCount].BottomLayer);

	mov	eax, DWORD PTR [esi+148]
	imul	eax, 44					; 0000002cH
	mov	ecx, DWORD PTR [eax+esi+156]
	push	ecx
	lea	edx, DWORD PTR _tempstr$[esp+304]
	push	OFFSET ??_C@_02DPKJAMEF@?$CFd?$AA@
	push	edx
	call	ebp

; 148  : 	m_TrialList.SetItemText(C.TrialCount, 1, tempstr);

	mov	ecx, DWORD PTR [esi+148]
	add	esp, 12					; 0000000cH
	lea	eax, DWORD PTR _tempstr$[esp+300]
	push	eax
	push	1
	push	ecx
	mov	ecx, edi
	call	?SetItemText@CListCtrl@@QAEHHHPBD@Z	; CListCtrl::SetItemText

; 149  : 	m_TrialList.SetItemText(C.TrialCount, 2, sub);

	lea	ecx, DWORD PTR _sub$[esp+300]
	call	DWORD PTR __imp_??B?$CSimpleStringT@D$00@ATL@@QBEPBDXZ
	mov	edx, DWORD PTR [esi+148]
	push	eax
	push	2
	push	edx
	mov	ecx, edi
	call	?SetItemText@CListCtrl@@QAEHHHPBD@Z	; CListCtrl::SetItemText

; 150  : 	C.TrialCount++;

	add	DWORD PTR [esi+148], 1
$LN33@OnAdd:

; 151  : }

	lea	ecx, DWORD PTR _tsub$[esp+300]
	call	DWORD PTR __imp_??1?$CStringT@DV?$StrTraitMFC_DLL@DV?$ChTraitsCRT@D@ATL@@@@@ATL@@QAE@XZ
	lea	ecx, DWORD PTR _sub$[esp+300]
	call	DWORD PTR __imp_??1?$CStringT@DV?$StrTraitMFC_DLL@DV?$ChTraitsCRT@D@ATL@@@@@ATL@@QAE@XZ
$LN11@OnAdd:
	mov	ecx, DWORD PTR __$EHRec$[esp+300]
	mov	DWORD PTR fs:0, ecx
	pop	ecx
	pop	edi
	pop	esi
	pop	ebp
	pop	ebx
	mov	ecx, DWORD PTR __$ArrayPad$[esp+280]
	xor	ecx, esp
	call	@__security_check_cookie@4
	add	esp, 280				; 00000118H
	ret	0
$LN21@OnAdd:

; 133  : 		{
; 134  : 			MessageBox("Triggers must be comma-separated integers", "Trial Error");

	push	0
	push	OFFSET ??_C@_0M@HADJFCOK@Trial?5Error?$AA@
	push	OFFSET ??_C@_0CK@LELGFKIL@Triggers?5must?5be?5comma?9separated@
	mov	ecx, esi
	call	?MessageBoxA@CWnd@@QAEHPBD0I@Z		; CWnd::MessageBoxA

; 135  : 			for (i = 0; i < MAX_TRIGGERS; i++)
; 136  : 				C.Trials[C.TrialCount].Triggers[i] = -1;

	mov	ecx, DWORD PTR [esi+148]
	imul	ecx, 44					; 0000002cH
	or	eax, -1
	mov	DWORD PTR [ecx+esi+164], eax
	mov	edx, DWORD PTR [esi+148]
	imul	edx, 44					; 0000002cH
	mov	DWORD PTR [edx+esi+168], eax
	mov	ecx, DWORD PTR [esi+148]
	imul	ecx, 44					; 0000002cH
	mov	DWORD PTR [ecx+esi+172], eax
	mov	edx, DWORD PTR [esi+148]
	add	edx, 4
	imul	edx, 44					; 0000002cH
	mov	DWORD PTR [edx+esi], eax
	mov	ecx, DWORD PTR [esi+148]
	imul	ecx, 44					; 0000002cH
	mov	DWORD PTR [ecx+esi+180], eax
	mov	edx, DWORD PTR [esi+148]
	imul	edx, 44					; 0000002cH
	mov	DWORD PTR [edx+esi+184], eax
	mov	ecx, DWORD PTR [esi+148]
	imul	ecx, 44					; 0000002cH
	mov	DWORD PTR [ecx+esi+188], eax
	mov	edx, DWORD PTR [esi+148]
	imul	edx, 44					; 0000002cH
	mov	DWORD PTR [edx+esi+192], eax

; 137  : 			return;

	jmp	$LN33@OnAdd
_TEXT	ENDS
;	COMDAT text$x
text$x	SEGMENT
__unwindfunclet$?OnAdd@CEditConfig@@IAEXXZ$0:
	lea	ecx, DWORD PTR _sub$[ebp]
	jmp	DWORD PTR __imp_??1?$CStringT@DV?$StrTraitMFC_DLL@DV?$ChTraitsCRT@D@ATL@@@@@ATL@@QAE@XZ
__unwindfunclet$?OnAdd@CEditConfig@@IAEXXZ$1:
	lea	ecx, DWORD PTR _tsub$[ebp]
	jmp	DWORD PTR __imp_??1?$CStringT@DV?$StrTraitMFC_DLL@DV?$ChTraitsCRT@D@ATL@@@@@ATL@@QAE@XZ
__ehhandler$?OnAdd@CEditConfig@@IAEXXZ:
	mov	edx, DWORD PTR [esp+8]
	lea	eax, DWORD PTR [edx-284]
	mov	ecx, DWORD PTR [edx-288]
	xor	ecx, eax
	call	@__security_check_cookie@4
	add	eax, 16					; 00000010H
	mov	ecx, DWORD PTR [edx-4]
	xor	ecx, eax
	call	@__security_check_cookie@4
	mov	eax, OFFSET __ehfuncinfo$?OnAdd@CEditConfig@@IAEXXZ
	jmp	___CxxFrameHandler3
text$x	ENDS
?OnAdd@CEditConfig@@IAEXXZ ENDP				; CEditConfig::OnAdd
PUBLIC	?OnDel@CEditConfig@@IAEXXZ			; CEditConfig::OnDel
; Function compile flags: /Ogtpy
;	COMDAT ?OnDel@CEditConfig@@IAEXXZ
_TEXT	SEGMENT
?OnDel@CEditConfig@@IAEXXZ PROC				; CEditConfig::OnDel, COMDAT
; _this$ = ecx

; 154  : {

	push	ebx
	push	ebp

; 155  : 	// TODO: Add your control notification handler code here
; 156  : 	int index = m_TrialList.GetSelectionMark();

	push	0
	push	0
	mov	ebx, ecx
	mov	eax, DWORD PTR [ebx+952]
	push	4162					; 00001042H
	push	eax
	call	DWORD PTR __imp__SendMessageA@16
	mov	ebp, eax

; 157  : 	if (index >= 0)

	test	ebp, ebp
	jl	$LN12@OnDel

; 158  : 	{
; 159  : 		int i, j;
; 160  : 		for (i = index + 1; i < C.TrialCount + 1; i++)

	mov	ecx, DWORD PTR [ebx+148]
	lea	edx, DWORD PTR [ebp+1]
	add	ecx, 1
	cmp	edx, ecx
	jge	SHORT $LN4@OnDel
	mov	eax, edx
	imul	eax, 44					; 0000002cH
	push	esi
	lea	eax, DWORD PTR [eax+ebx+108]
	push	edi
	npad	1
$LL6@OnDel:

; 161  : 			C.Trials[i - 1] = C.Trials[i];

	lea	esi, DWORD PTR [eax+44]
	mov	edi, eax
	mov	ecx, 11					; 0000000bH
	rep movsd
	mov	ecx, DWORD PTR [ebx+148]
	add	edx, 1
	add	ecx, 1
	add	eax, 44					; 0000002cH
	cmp	edx, ecx
	jl	SHORT $LL6@OnDel
	pop	edi
	pop	esi
$LN4@OnDel:

; 162  : 		for (j = 0; j < MAX_TRIGGERS; j++)
; 163  : 			C.Trials[i].Triggers[j] = -1;

	mov	ecx, edx
	imul	ecx, 11					; 0000000bH
	add	edx, 4
	imul	edx, 44					; 0000002cH
	or	eax, -1

; 164  : 		C.TrialCount--;
; 165  : 		m_TrialList.DeleteItem(index);

	push	0
	push	ebp
	mov	DWORD PTR [ebx+ecx*4+164], eax
	mov	DWORD PTR [ebx+ecx*4+168], eax
	mov	DWORD PTR [ebx+ecx*4+172], eax
	mov	DWORD PTR [edx+ebx], eax
	mov	DWORD PTR [ebx+ecx*4+180], eax
	mov	DWORD PTR [ebx+ecx*4+184], eax
	mov	DWORD PTR [ebx+ecx*4+188], eax
	mov	DWORD PTR [ebx+ecx*4+192], eax
	mov	edx, DWORD PTR [ebx+952]
	add	DWORD PTR [ebx+148], eax
	push	4104					; 00001008H
	push	edx
	call	DWORD PTR __imp__SendMessageA@16
$LN12@OnDel:
	pop	ebp
	pop	ebx

; 166  : 		};
; 167  : }

	ret	0
?OnDel@CEditConfig@@IAEXXZ ENDP				; CEditConfig::OnDel
_TEXT	ENDS
PUBLIC	??_C@_07MBELDEGC@Trigger?$AA@			; `string'
PUBLIC	??_C@_06DDHCBBGN@Bottom?$AA@			; `string'
PUBLIC	??_C@_03PGGAENPN@Top?$AA@			; `string'
EXTRN	?InsertColumn@CListCtrl@@QAEHHPBDHHH@Z:PROC	; CListCtrl::InsertColumn
EXTRN	?OnInitDialog@CDialog@@UAEHXZ:PROC		; CDialog::OnInitDialog
;	COMDAT ??_C@_07MBELDEGC@Trigger?$AA@
; File f:\program files\microsoft visual studio 8\vc\atlmfc\include\afxcmn.inl
CONST	SEGMENT
??_C@_07MBELDEGC@Trigger?$AA@ DB 'Trigger', 00H		; `string'
CONST	ENDS
;	COMDAT ??_C@_06DDHCBBGN@Bottom?$AA@
CONST	SEGMENT
??_C@_06DDHCBBGN@Bottom?$AA@ DB 'Bottom', 00H		; `string'
CONST	ENDS
;	COMDAT ??_C@_03PGGAENPN@Top?$AA@
CONST	SEGMENT
??_C@_03PGGAENPN@Top?$AA@ DB 'Top', 00H			; `string'
CONST	ENDS
;	COMDAT xdata$x
xdata$x	SEGMENT
__unwindtable$?OnInitDialog@CEditConfig@@MAEHXZ DD 0ffffffffH
	DD	FLAT:__unwindfunclet$?OnInitDialog@CEditConfig@@MAEHXZ$0
	DD	00H
	DD	FLAT:__unwindfunclet$?OnInitDialog@CEditConfig@@MAEHXZ$1
__ehfuncinfo$?OnInitDialog@CEditConfig@@MAEHXZ DD 019930522H
	DD	02H
	DD	FLAT:__unwindtable$?OnInitDialog@CEditConfig@@MAEHXZ
	DD	2 DUP(00H)
	DD	2 DUP(00H)
	DD	00H
	DD	01H
; Function compile flags: /Ogtpy
; File d:\sysal2\smarttracker8.6\editconfig.cpp
xdata$x	ENDS
;	COMDAT ?OnInitDialog@CEditConfig@@MAEHXZ
_TEXT	SEGMENT
_str$ = -28						; size = 4
tv322 = -24						; size = 4
_temp$ = -20						; size = 4
_this$ = -16						; size = 4
__$EHRec$ = -12						; size = 12
?OnInitDialog@CEditConfig@@MAEHXZ PROC			; CEditConfig::OnInitDialog, COMDAT
; _this$ = ecx

; 170  : {

	push	-1
	push	__ehhandler$?OnInitDialog@CEditConfig@@MAEHXZ
	mov	eax, DWORD PTR fs:0
	push	eax
	sub	esp, 16					; 00000010H
	push	ebx
	push	ebp
	push	esi
	push	edi
	mov	eax, DWORD PTR ___security_cookie
	xor	eax, esp
	push	eax
	lea	eax, DWORD PTR __$EHRec$[esp+48]
	mov	DWORD PTR fs:0, eax
	mov	esi, ecx
	mov	DWORD PTR _this$[esp+48], esi

; 171  : 	CDialog::OnInitDialog();

	call	?OnInitDialog@CDialog@@UAEHXZ		; CDialog::OnInitDialog

; 172  : 	
; 173  : 	// TODO: Add extra initialization here
; 174  : 	m_TrialList.InsertColumn(0, "Top", LVCFMT_RIGHT, 60, 0);

	xor	ebx, ebx
	push	ebx
	push	60					; 0000003cH
	push	1
	push	OFFSET ??_C@_03PGGAENPN@Top?$AA@
	lea	ebp, DWORD PTR [esi+920]
	push	ebx
	mov	ecx, ebp
	call	?InsertColumn@CListCtrl@@QAEHHPBDHHH@Z	; CListCtrl::InsertColumn

; 175  : 	m_TrialList.InsertColumn(1, "Bottom", LVCFMT_RIGHT, 60, 1);

	push	1
	push	60					; 0000003cH
	push	1
	push	OFFSET ??_C@_06DDHCBBGN@Bottom?$AA@
	push	1
	mov	ecx, ebp
	call	?InsertColumn@CListCtrl@@QAEHHPBDHHH@Z	; CListCtrl::InsertColumn

; 176  : 	m_TrialList.InsertColumn(2, "Trigger", LVCFMT_RIGHT, 80, 2);

	push	2
	push	80					; 00000050H
	push	1
	push	OFFSET ??_C@_07MBELDEGC@Trigger?$AA@
	push	2
	mov	ecx, ebp
	call	?InsertColumn@CListCtrl@@QAEHHPBDHHH@Z	; CListCtrl::InsertColumn

; 177  : 	ListView_SetExtendedListViewStyle(m_TrialList.m_hWnd, (LVS_EX_FULLROWSELECT | LVS_EX_GRIDLINES) | ListView_GetExtendedListViewStyle(m_TrialList.m_hWnd));

	mov	eax, DWORD PTR [esi+952]
	mov	edi, DWORD PTR __imp__SendMessageA@16
	push	ebx
	push	ebx
	push	4151					; 00001037H
	push	eax
	call	edi
	mov	ecx, DWORD PTR [esi+952]
	or	eax, 33					; 00000021H
	push	eax
	push	ebx
	push	4150					; 00001036H
	push	ecx
	call	edi

; 178  : 	int i, j;
; 179  : 	CString str;

	lea	ecx, DWORD PTR _str$[esp+48]
	call	DWORD PTR __imp_??0?$CStringT@DV?$StrTraitMFC_DLL@DV?$ChTraitsCRT@D@ATL@@@@@ATL@@QAE@XZ

; 180  : 	CString temp;

	lea	ecx, DWORD PTR _temp$[esp+48]
	mov	DWORD PTR __$EHRec$[esp+56], ebx
	call	DWORD PTR __imp_??0?$CStringT@DV?$StrTraitMFC_DLL@DV?$ChTraitsCRT@D@ATL@@@@@ATL@@QAE@XZ

; 181  : 	for (i = 0; i < C.TrialCount; i++)

	cmp	DWORD PTR [esi+148], ebx
	mov	BYTE PTR __$EHRec$[esp+56], 1
	jle	$LN5@OnInitDial

; 171  : 	CDialog::OnInitDialog();

	add	esi, 160				; 000000a0H
$LN7@OnInitDial:

; 182  : 	{
; 183  : 		str.Format("%d", C.Trials[i].TopLayer);

	mov	edx, DWORD PTR [esi-8]
	mov	edi, DWORD PTR __imp_?Format@?$CStringT@DV?$StrTraitMFC_DLL@DV?$ChTraitsCRT@D@ATL@@@@@ATL@@QAAXPBDZZ
	push	edx
	lea	eax, DWORD PTR _str$[esp+52]
	push	OFFSET ??_C@_02DPKJAMEF@?$CFd?$AA@
	push	eax
	call	edi
	add	esp, 12					; 0000000cH

; 184  : 		m_TrialList.InsertItem(i, str);

	lea	ecx, DWORD PTR _str$[esp+48]
	call	DWORD PTR __imp_??B?$CSimpleStringT@D$00@ATL@@QBEPBDXZ
	push	0
	push	0
	push	0
	push	0
	push	eax
	push	ebx
	push	1
	mov	ecx, ebp
	call	?InsertItem@CListCtrl@@QAEHIHPBDIIHJ@Z	; CListCtrl::InsertItem

; 185  : 		str.Format("%d", C.Trials[i].BottomLayer);

	mov	ecx, DWORD PTR [esi-4]
	push	ecx
	lea	edx, DWORD PTR _str$[esp+52]
	push	OFFSET ??_C@_02DPKJAMEF@?$CFd?$AA@
	push	edx
	call	edi
	add	esp, 12					; 0000000cH

; 186  : 		m_TrialList.SetItemText(i, 1, str);

	lea	ecx, DWORD PTR _str$[esp+48]
	call	DWORD PTR __imp_??B?$CSimpleStringT@D$00@ATL@@QBEPBDXZ
	push	eax
	push	1
	push	ebx
	mov	ecx, ebp
	call	?SetItemText@CListCtrl@@QAEHHHPBD@Z	; CListCtrl::SetItemText

; 187  : 		str = "";

	push	OFFSET ??_C@_00CNPNBAHC@?$AA@
	lea	ecx, DWORD PTR _str$[esp+52]
	call	DWORD PTR __imp_??4?$CStringT@DV?$StrTraitMFC_DLL@DV?$ChTraitsCRT@D@ATL@@@@@ATL@@QAEAAV01@PBD@Z

; 188  : 		for (j = 0; j < C.Trials[i].TriggerCount; j++)

	xor	edi, edi
	cmp	DWORD PTR [esi], edi
	jle	SHORT $LN2@OnInitDial
	lea	eax, DWORD PTR [esi+4]
	mov	DWORD PTR tv322[esp+48], eax
$LN4@OnInitDial:

; 189  : 		{
; 190  : 			if (j > 0) str += ",";

	test	edi, edi
	jle	SHORT $LN1@OnInitDial
	push	OFFSET ??_C@_01IHBHIGKO@?0?$AA@
	lea	ecx, DWORD PTR _str$[esp+52]
	call	DWORD PTR __imp_??Y?$CStringT@DV?$StrTraitMFC_DLL@DV?$ChTraitsCRT@D@ATL@@@@@ATL@@QAEAAV01@PBD@Z
$LN1@OnInitDial:

; 191  : 			temp.Format("%d", C.Trials[i].Triggers[j]);

	mov	ecx, DWORD PTR tv322[esp+48]
	mov	edx, DWORD PTR [ecx]
	push	edx
	lea	eax, DWORD PTR _temp$[esp+52]
	push	OFFSET ??_C@_02DPKJAMEF@?$CFd?$AA@
	push	eax
	call	DWORD PTR __imp_?Format@?$CStringT@DV?$StrTraitMFC_DLL@DV?$ChTraitsCRT@D@ATL@@@@@ATL@@QAAXPBDZZ
	add	esp, 12					; 0000000cH

; 192  : 			str += temp;

	lea	ecx, DWORD PTR _temp$[esp+48]
	push	ecx
	lea	ecx, DWORD PTR _str$[esp+52]
	call	DWORD PTR __imp_??Y?$CStringT@DV?$StrTraitMFC_DLL@DV?$ChTraitsCRT@D@ATL@@@@@ATL@@QAEAAV01@ABV?$CSimpleStringT@D$00@1@@Z
	add	DWORD PTR tv322[esp+48], 4
	add	edi, 1
	cmp	edi, DWORD PTR [esi]
	jl	SHORT $LN4@OnInitDial
$LN2@OnInitDial:

; 193  : 			}
; 194  : 		m_TrialList.SetItemText(i, 2, str);

	lea	ecx, DWORD PTR _str$[esp+48]
	call	DWORD PTR __imp_??B?$CSimpleStringT@D$00@ATL@@QBEPBDXZ
	push	eax
	push	2
	push	ebx
	mov	ecx, ebp
	call	?SetItemText@CListCtrl@@QAEHHHPBD@Z	; CListCtrl::SetItemText
	mov	edx, DWORD PTR _this$[esp+48]
	add	ebx, 1
	add	esi, 44					; 0000002cH
	cmp	ebx, DWORD PTR [edx+148]
	jl	$LN7@OnInitDial
$LN5@OnInitDial:

; 195  : 		};
; 196  : 	return TRUE;  // return TRUE unless you set the focus to a control

	lea	ecx, DWORD PTR _temp$[esp+48]
	call	DWORD PTR __imp_??1?$CStringT@DV?$StrTraitMFC_DLL@DV?$ChTraitsCRT@D@ATL@@@@@ATL@@QAE@XZ
	lea	ecx, DWORD PTR _str$[esp+48]
	call	DWORD PTR __imp_??1?$CStringT@DV?$StrTraitMFC_DLL@DV?$ChTraitsCRT@D@ATL@@@@@ATL@@QAE@XZ
	mov	eax, 1

; 197  : 	              // EXCEPTION: OCX Property Pages should return FALSE
; 198  : }

	mov	ecx, DWORD PTR __$EHRec$[esp+48]
	mov	DWORD PTR fs:0, ecx
	pop	ecx
	pop	edi
	pop	esi
	pop	ebp
	pop	ebx
	add	esp, 28					; 0000001cH
	ret	0
_TEXT	ENDS
;	COMDAT text$x
text$x	SEGMENT
__unwindfunclet$?OnInitDialog@CEditConfig@@MAEHXZ$0:
	lea	ecx, DWORD PTR _str$[ebp]
	jmp	DWORD PTR __imp_??1?$CStringT@DV?$StrTraitMFC_DLL@DV?$ChTraitsCRT@D@ATL@@@@@ATL@@QAE@XZ
__unwindfunclet$?OnInitDialog@CEditConfig@@MAEHXZ$1:
	lea	ecx, DWORD PTR _temp$[ebp]
	jmp	DWORD PTR __imp_??1?$CStringT@DV?$StrTraitMFC_DLL@DV?$ChTraitsCRT@D@ATL@@@@@ATL@@QAE@XZ
__ehhandler$?OnInitDialog@CEditConfig@@MAEHXZ:
	mov	edx, DWORD PTR [esp+8]
	lea	eax, DWORD PTR [edx-32]
	mov	ecx, DWORD PTR [edx-36]
	xor	ecx, eax
	call	@__security_check_cookie@4
	mov	eax, OFFSET __ehfuncinfo$?OnInitDialog@CEditConfig@@MAEHXZ
	jmp	___CxxFrameHandler3
text$x	ENDS
?OnInitDialog@CEditConfig@@MAEHXZ ENDP			; CEditConfig::OnInitDialog
PUBLIC	??1CTestDlg@@UAE@XZ				; CTestDlg::~CTestDlg
; Function compile flags: /Ogtpy
;	COMDAT ??1CTestDlg@@UAE@XZ
_TEXT	SEGMENT
??1CTestDlg@@UAE@XZ PROC				; CTestDlg::~CTestDlg, COMDAT
; _this$ = ecx
	push	esi
	mov	esi, ecx
	lea	ecx, DWORD PTR [esi+128]
	call	DWORD PTR __imp_??1?$CStringT@DV?$StrTraitMFC_DLL@DV?$ChTraitsCRT@D@ATL@@@@@ATL@@QAE@XZ
	lea	ecx, DWORD PTR [esi+116]
	call	DWORD PTR __imp_??1?$CStringT@DV?$StrTraitMFC_DLL@DV?$ChTraitsCRT@D@ATL@@@@@ATL@@QAE@XZ
	mov	ecx, esi
	pop	esi
	jmp	??1CDialog@@UAE@XZ			; CDialog::~CDialog
??1CTestDlg@@UAE@XZ ENDP				; CTestDlg::~CTestDlg
_TEXT	ENDS
PUBLIC	??_C@_0P@HAFHDGNF@HelpConfig?4htm?$AA@		; `string'
PUBLIC	?OnHelp@CEditConfig@@IAEXXZ			; CEditConfig::OnHelp
EXTRN	_HtmlHelpA@16:PROC
EXTRN	?pHelpPath@CSmartTrackerClass@@2PADA:DWORD	; CSmartTrackerClass::pHelpPath
;	COMDAT ??_C@_0P@HAFHDGNF@HelpConfig?4htm?$AA@
CONST	SEGMENT
??_C@_0P@HAFHDGNF@HelpConfig?4htm?$AA@ DB 'HelpConfig.htm', 00H ; `string'
; Function compile flags: /Ogtpy
CONST	ENDS
;	COMDAT ?OnHelp@CEditConfig@@IAEXXZ
_TEXT	SEGMENT
?OnHelp@CEditConfig@@IAEXXZ PROC			; CEditConfig::OnHelp, COMDAT
; _this$ = ecx

; 227  : 	// TODO: Add your control notification handler code here
; 228  : 	::HtmlHelp(this->m_hWnd, CSmartTrackerClass::pHelpPath, HH_DISPLAY_TOPIC, (DWORD)"HelpConfig.htm");	

	mov	eax, DWORD PTR ?pHelpPath@CSmartTrackerClass@@2PADA ; CSmartTrackerClass::pHelpPath
	mov	ecx, DWORD PTR [ecx+32]
	push	OFFSET ??_C@_0P@HAFHDGNF@HelpConfig?4htm?$AA@
	push	0
	push	eax
	push	ecx
	call	_HtmlHelpA@16

; 229  : }

	ret	0
?OnHelp@CEditConfig@@IAEXXZ ENDP			; CEditConfig::OnHelp
; Function compile flags: /Ogtpy
; File f:\program files\microsoft visual studio 8\vc\atlmfc\include\afx.inl
_TEXT	ENDS
;	COMDAT ?Serialize@CObject@@UAEXAAVCArchive@@@Z
_TEXT	SEGMENT
___formal$ = 8						; size = 4
?Serialize@CObject@@UAEXAAVCArchive@@@Z PROC		; CObject::Serialize, COMDAT
; _this$ = ecx

; 96   : 	{ /* CObject does not serialize anything by default */ }

	ret	4
?Serialize@CObject@@UAEXAAVCArchive@@@Z ENDP		; CObject::Serialize
_TEXT	ENDS
PUBLIC	??3CObject@@SGXPAX@Z				; CObject::operator delete
EXTRN	??3@YAXPAX@Z:PROC				; operator delete
; Function compile flags: /Ogtpy
;	COMDAT ??3CObject@@SGXPAX@Z
_TEXT	SEGMENT
_p$ = 8							; size = 4
??3CObject@@SGXPAX@Z PROC				; CObject::operator delete, COMDAT

; 102  : 	{ ::operator delete(p); }

	mov	eax, DWORD PTR _p$[esp-4]
	push	eax
	call	??3@YAXPAX@Z				; operator delete
	pop	ecx
	ret	4
??3CObject@@SGXPAX@Z ENDP				; CObject::operator delete
; Function compile flags: /Ogtpy
_TEXT	ENDS
;	COMDAT ?AssertValid@CObject@@UBEXXZ
_TEXT	SEGMENT
?AssertValid@CObject@@UBEXXZ PROC			; CObject::AssertValid, COMDAT
; _this$ = ecx

; 112  : 	{ /* no asserts in release builds */ }

	ret	0
?AssertValid@CObject@@UBEXXZ ENDP			; CObject::AssertValid
; Function compile flags: /Ogtpy
_TEXT	ENDS
;	COMDAT ?Dump@CObject@@UBEXAAVCDumpContext@@@Z
_TEXT	SEGMENT
___formal$ = 8						; size = 4
?Dump@CObject@@UBEXAAVCDumpContext@@@Z PROC		; CObject::Dump, COMDAT
; _this$ = ecx

; 114  : 	{ /* no dumping in release builds */ }

	ret	4
?Dump@CObject@@UBEXAAVCDumpContext@@@Z ENDP		; CObject::Dump
; Function compile flags: /Ogtpy
; File f:\program files\microsoft visual studio 8\vc\atlmfc\include\afxwin2.inl
_TEXT	ENDS
;	COMDAT ?DoDataExchange@CWnd@@MAEXPAVCDataExchange@@@Z
_TEXT	SEGMENT
___formal$ = 8						; size = 4
?DoDataExchange@CWnd@@MAEXPAVCDataExchange@@@Z PROC	; CWnd::DoDataExchange, COMDAT
; _this$ = ecx

; 577  : 	{ } // default does nothing

	ret	4
?DoDataExchange@CWnd@@MAEXPAVCDataExchange@@@Z ENDP	; CWnd::DoDataExchange
_TEXT	ENDS
EXTRN	__imp__EnableWindow@8:PROC
; Function compile flags: /Ogtpy
;	COMDAT ?BeginModalState@CWnd@@UAEXXZ
_TEXT	SEGMENT
?BeginModalState@CWnd@@UAEXXZ PROC			; CWnd::BeginModalState, COMDAT
; _this$ = ecx

; 581  : 	{ ::EnableWindow(m_hWnd, FALSE); }

	mov	eax, DWORD PTR [ecx+32]
	push	0
	push	eax
	call	DWORD PTR __imp__EnableWindow@8
	ret	0
?BeginModalState@CWnd@@UAEXXZ ENDP			; CWnd::BeginModalState
; Function compile flags: /Ogtpy
_TEXT	ENDS
;	COMDAT ?EndModalState@CWnd@@UAEXXZ
_TEXT	SEGMENT
?EndModalState@CWnd@@UAEXXZ PROC			; CWnd::EndModalState, COMDAT
; _this$ = ecx

; 583  : 	{ ::EnableWindow(m_hWnd, TRUE); }

	mov	eax, DWORD PTR [ecx+32]
	push	1
	push	eax
	call	DWORD PTR __imp__EnableWindow@8
	ret	0
?EndModalState@CWnd@@UAEXXZ ENDP			; CWnd::EndModalState
; Function compile flags: /Ogtpy
_TEXT	ENDS
;	COMDAT ?Create@CDialog@@UAEHIPAVCWnd@@@Z
_TEXT	SEGMENT
_nIDTemplate$ = 8					; size = 4
_pParentWnd$ = 12					; size = 4
?Create@CDialog@@UAEHIPAVCWnd@@@Z PROC			; CDialog::Create, COMDAT
; _this$ = ecx

; 601  : 	{ return CDialog::Create(ATL_MAKEINTRESOURCE(nIDTemplate), pParentWnd); }

	movzx	edx, WORD PTR _nIDTemplate$[esp-4]
	mov	DWORD PTR _nIDTemplate$[esp-4], edx
	jmp	?Create@CDialog@@UAEHPBDPAVCWnd@@@Z	; CDialog::Create
?Create@CDialog@@UAEHIPAVCWnd@@@Z ENDP			; CDialog::Create
; Function compile flags: /Ogtpy
_TEXT	ENDS
;	COMDAT ??_GCListCtrl@@UAEPAXI@Z
_TEXT	SEGMENT
___flags$ = 8						; size = 4
??_GCListCtrl@@UAEPAXI@Z PROC				; CListCtrl::`scalar deleting destructor', COMDAT
; _this$ = ecx
	push	esi
	mov	esi, ecx
	call	??1CListCtrl@@UAE@XZ			; CListCtrl::~CListCtrl
	test	BYTE PTR ___flags$[esp], 1
	je	SHORT $LN6@scalar
	push	esi
	call	??3@YAXPAX@Z				; operator delete
	add	esp, 4
$LN6@scalar:
	mov	eax, esi
	pop	esi
	ret	4
??_GCListCtrl@@UAEPAXI@Z ENDP				; CListCtrl::`scalar deleting destructor'
; Function compile flags: /Ogtpy
_TEXT	ENDS
;	COMDAT ??_GCEditConfig@@UAEPAXI@Z
_TEXT	SEGMENT
___flags$ = 8						; size = 4
??_GCEditConfig@@UAEPAXI@Z PROC				; CEditConfig::`scalar deleting destructor', COMDAT
; _this$ = ecx
	push	esi
	mov	esi, ecx
	call	??1CEditConfig@@UAE@XZ
	test	BYTE PTR ___flags$[esp], 1
	je	SHORT $LN6@scalar@2
	push	esi
	call	??3@YAXPAX@Z				; operator delete
	add	esp, 4
$LN6@scalar@2:
	mov	eax, esi
	pop	esi
	ret	4
??_GCEditConfig@@UAEPAXI@Z ENDP				; CEditConfig::`scalar deleting destructor'
_TEXT	ENDS
PUBLIC	__real@40800000
PUBLIC	__real@3c23d70a
PUBLIC	__real@40400000
PUBLIC	__real@40a00000
PUBLIC	__real@ba83126f
PUBLIC	__real@42480000
PUBLIC	__real@40000000
PUBLIC	__real@00000000
PUBLIC	__real@41200000
EXTRN	?DDX_Check@@YGXPAVCDataExchange@@HAAH@Z:PROC	; DDX_Check
EXTRN	?DDV_MinMaxFloat@@YGXPAVCDataExchange@@ABMMM@Z:PROC ; DDV_MinMaxFloat
EXTRN	?DDX_Text@@YGXPAVCDataExchange@@HAAM@Z:PROC	; DDX_Text
EXTRN	?DDX_Text@@YGXPAVCDataExchange@@HAAH@Z:PROC	; DDX_Text
EXTRN	?DDV_MaxChars@@YGXPAVCDataExchange@@ABV?$CStringT@DV?$StrTraitMFC_DLL@DV?$ChTraitsCRT@D@ATL@@@@@ATL@@H@Z:PROC ; DDV_MaxChars
EXTRN	?DDX_Text@@YGXPAVCDataExchange@@HAAV?$CStringT@DV?$StrTraitMFC_DLL@DV?$ChTraitsCRT@D@ATL@@@@@ATL@@@Z:PROC ; DDX_Text
EXTRN	?DDV_MinMaxUInt@@YGXPAVCDataExchange@@III@Z:PROC ; DDV_MinMaxUInt
EXTRN	?DDX_Text@@YGXPAVCDataExchange@@HAAI@Z:PROC	; DDX_Text
EXTRN	?DDX_Control@@YGXPAVCDataExchange@@HAAVCWnd@@@Z:PROC ; DDX_Control
EXTRN	__fltused:DWORD
;	COMDAT __real@40800000
CONST	SEGMENT
__real@40800000 DD 040800000r			; 4
CONST	ENDS
;	COMDAT __real@3c23d70a
CONST	SEGMENT
__real@3c23d70a DD 03c23d70ar			; 0.01
CONST	ENDS
;	COMDAT __real@40400000
CONST	SEGMENT
__real@40400000 DD 040400000r			; 3
CONST	ENDS
;	COMDAT __real@40a00000
CONST	SEGMENT
__real@40a00000 DD 040a00000r			; 5
CONST	ENDS
;	COMDAT __real@ba83126f
CONST	SEGMENT
__real@ba83126f DD 0ba83126fr			; -0.001
CONST	ENDS
;	COMDAT __real@42480000
CONST	SEGMENT
__real@42480000 DD 042480000r			; 50
CONST	ENDS
;	COMDAT __real@40000000
CONST	SEGMENT
__real@40000000 DD 040000000r			; 2
CONST	ENDS
;	COMDAT __real@00000000
CONST	SEGMENT
__real@00000000 DD 000000000r			; 0
CONST	ENDS
;	COMDAT __real@41200000
CONST	SEGMENT
__real@41200000 DD 041200000r			; 10
; Function compile flags: /Ogtpy
; File d:\sysal2\smarttracker8.6\editconfig.cpp
CONST	ENDS
;	COMDAT ?DoDataExchange@CEditConfig@@MAEXPAVCDataExchange@@@Z
_TEXT	SEGMENT
tv326 = -8						; size = 4
tv272 = -8						; size = 8
tv322 = 8						; size = 2
_pDX$ = 8						; size = 4
?DoDataExchange@CEditConfig@@MAEXPAVCDataExchange@@@Z PROC ; CEditConfig::DoDataExchange, COMDAT
; _this$ = ecx

; 34   : {

	sub	esp, 8
	push	ebx
	push	esi

; 35   : 	CDialog::DoDataExchange(pDX);
; 36   : 	//{{AFX_DATA_MAP(CEditConfig)
; 37   : 	DDX_Control(pDX, IDC_EC_TRIALLIST, m_TrialList);

	mov	esi, DWORD PTR _pDX$[esp+12]
	push	edi
	mov	edi, ecx
	lea	eax, DWORD PTR [edi+920]
	push	eax
	push	217					; 000000d9H
	push	esi
	call	?DDX_Control@@YGXPAVCDataExchange@@HAAVCWnd@@@Z ; DDX_Control

; 38   : 	DDX_Text(pDX, IDC_EC_TOPLAYER, m_TopLayer);

	lea	ebx, DWORD PTR [edi+1004]
	push	ebx
	push	208					; 000000d0H
	push	esi
	call	?DDX_Text@@YGXPAVCDataExchange@@HAAI@Z	; DDX_Text

; 39   : 	DDV_MinMaxUInt(pDX, m_TopLayer, 0, 100);

	mov	ecx, DWORD PTR [ebx]
	push	100					; 00000064H
	push	0
	push	ecx
	push	esi
	call	?DDV_MinMaxUInt@@YGXPAVCDataExchange@@III@Z ; DDV_MinMaxUInt

; 40   : 	DDX_Text(pDX, IDC_EC_BOTTOMLAYER, m_BottomLayer);

	lea	ebx, DWORD PTR [edi+1008]
	push	ebx
	push	209					; 000000d1H
	push	esi
	call	?DDX_Text@@YGXPAVCDataExchange@@HAAI@Z	; DDX_Text

; 41   : 	DDV_MinMaxUInt(pDX, m_BottomLayer, 0, 100);

	mov	edx, DWORD PTR [ebx]
	push	100					; 00000064H
	push	0
	push	edx
	push	esi
	call	?DDV_MinMaxUInt@@YGXPAVCDataExchange@@III@Z ; DDV_MinMaxUInt

; 42   : 	DDX_Text(pDX, IDC_EC_TRIGGERCOUNT, m_Triggers);

	lea	ebx, DWORD PTR [edi+1012]
	push	ebx
	push	210					; 000000d2H
	push	esi
	call	?DDX_Text@@YGXPAVCDataExchange@@HAAV?$CStringT@DV?$StrTraitMFC_DLL@DV?$ChTraitsCRT@D@ATL@@@@@ATL@@@Z ; DDX_Text

; 43   : 	DDV_MaxChars(pDX, m_Triggers, 63);

	push	63					; 0000003fH
	push	ebx
	push	esi
	call	?DDV_MaxChars@@YGXPAVCDataExchange@@ABV?$CStringT@DV?$StrTraitMFC_DLL@DV?$ChTraitsCRT@D@ATL@@@@@ATL@@H@Z ; DDV_MaxChars

; 44   : 	//}}AFX_DATA_MAP
; 45   : 	DDX_Text(pDX, IDC_EC_CELLOVERFLOW, C.CellOverflow);

	lea	ebx, DWORD PTR [edi+124]
	push	ebx
	push	205					; 000000cdH
	push	esi
	call	?DDX_Text@@YGXPAVCDataExchange@@HAAH@Z	; DDX_Text

; 46   : 	DDV_MinMaxUInt(pDX, C.CellOverflow, 32, 1024);

	mov	eax, DWORD PTR [ebx]
	push	1024					; 00000400H
	push	32					; 00000020H
	push	eax
	push	esi
	call	?DDV_MinMaxUInt@@YGXPAVCDataExchange@@III@Z ; DDV_MinMaxUInt

; 47   : 	DDX_Text(pDX, IDC_EC_CELLSX, C.CellNumX);

	lea	ebx, DWORD PTR [edi+128]
	push	ebx
	push	203					; 000000cbH
	push	esi
	call	?DDX_Text@@YGXPAVCDataExchange@@HAAH@Z	; DDX_Text

; 48   : 	DDV_MinMaxUInt(pDX, C.CellNumX, 1, 100);

	mov	ecx, DWORD PTR [ebx]
	push	100					; 00000064H
	push	1
	push	ecx
	push	esi
	call	?DDV_MinMaxUInt@@YGXPAVCDataExchange@@III@Z ; DDV_MinMaxUInt

; 49   : 	DDX_Text(pDX, IDC_EC_CELLSY, C.CellNumY);

	lea	ebx, DWORD PTR [edi+132]
	push	ebx
	push	204					; 000000ccH
	push	esi
	call	?DDX_Text@@YGXPAVCDataExchange@@HAAH@Z	; DDX_Text

; 50   : 	DDV_MinMaxUInt(pDX, C.CellNumY, 1, 100);

	mov	edx, DWORD PTR [ebx]
	push	100					; 00000064H
	push	1
	push	edx
	push	esi
	call	?DDV_MinMaxUInt@@YGXPAVCDataExchange@@III@Z ; DDV_MinMaxUInt

; 51   : 	DDX_Text(pDX, IDC_EC_ALIGNTOL, C.AlignTol);

	lea	ebx, DWORD PTR [edi+144]
	push	ebx
	push	211					; 000000d3H
	push	esi
	call	?DDX_Text@@YGXPAVCDataExchange@@HAAM@Z	; DDX_Text

; 52   : 	DDV_MinMaxFloat(pDX, C.AlignTol, 0.f, 10.f);

	fld	DWORD PTR __real@41200000
	sub	esp, 8
	fstp	DWORD PTR [esp+4]
	fldz
	fstp	DWORD PTR [esp]
	push	ebx
	push	esi
	call	?DDV_MinMaxFloat@@YGXPAVCDataExchange@@ABMMM@Z ; DDV_MinMaxFloat

; 53   : 	DDX_Text(pDX, IDC_EC_MAXGRAINS, C.MaxGrains);

	lea	ebx, DWORD PTR [edi+116]
	push	ebx
	push	201					; 000000c9H
	push	esi
	call	?DDX_Text@@YGXPAVCDataExchange@@HAAH@Z	; DDX_Text

; 54   : 	DDV_MinMaxUInt(pDX, C.MaxGrains, 1000, 500000);

	mov	eax, DWORD PTR [ebx]
	push	500000					; 0007a120H
	push	1000					; 000003e8H
	push	eax
	push	esi
	call	?DDV_MinMaxUInt@@YGXPAVCDataExchange@@III@Z ; DDV_MinMaxUInt

; 55   : 	DDX_Text(pDX, IDC_EC_MAXLAYERS, C.LayerNum);

	lea	ebx, DWORD PTR [edi+120]
	push	ebx
	push	202					; 000000caH
	push	esi
	call	?DDX_Text@@YGXPAVCDataExchange@@HAAH@Z	; DDX_Text

; 56   : 	DDV_MinMaxUInt(pDX, C.LayerNum, 10, 200);

	mov	ecx, DWORD PTR [ebx]
	push	200					; 000000c8H
	push	10					; 0000000aH
	push	ecx
	push	esi
	call	?DDV_MinMaxUInt@@YGXPAVCDataExchange@@III@Z ; DDV_MinMaxUInt

; 57   : 	DDX_Text(pDX, IDC_EC_MAXPIXELS, C.PixMax);

	lea	ebx, DWORD PTR [edi+140]
	push	ebx
	push	207					; 000000cfH
	push	esi
	call	?DDX_Text@@YGXPAVCDataExchange@@HAAH@Z	; DDX_Text

; 58   : 	DDV_MinMaxUInt(pDX, C.PixMax, 1, 10000000);

	mov	edx, DWORD PTR [ebx]
	push	10000000				; 00989680H
	push	1
	push	edx
	push	esi
	call	?DDV_MinMaxUInt@@YGXPAVCDataExchange@@III@Z ; DDV_MinMaxUInt

; 59   : 	DDX_Text(pDX, IDC_EC_MAXSLOPE, C.MaxSlope);

	lea	ebx, DWORD PTR [edi+872]
	push	ebx
	push	214					; 000000d6H
	push	esi
	call	?DDX_Text@@YGXPAVCDataExchange@@HAAM@Z	; DDX_Text

; 60   : 	DDV_MinMaxFloat(pDX, C.MaxSlope, 0.f, 2.f);

	fld	DWORD PTR __real@40000000
	sub	esp, 8
	fstp	DWORD PTR [esp+4]
	fldz
	fstp	DWORD PTR [esp]
	push	ebx
	push	esi
	call	?DDV_MinMaxFloat@@YGXPAVCDataExchange@@ABMMM@Z ; DDV_MinMaxFloat

; 61   : 	DDX_Text(pDX, IDC_EC_MINPIXELS, C.PixMin);

	lea	ebx, DWORD PTR [edi+136]
	push	ebx
	push	206					; 000000ceH
	push	esi
	call	?DDX_Text@@YGXPAVCDataExchange@@HAAH@Z	; DDX_Text

; 62   : 	DDV_MinMaxUInt(pDX, C.PixMin, 0, 10000000);

	mov	eax, DWORD PTR [ebx]
	push	10000000				; 00989680H
	push	0
	push	eax
	push	esi
	call	?DDV_MinMaxUInt@@YGXPAVCDataExchange@@III@Z ; DDV_MinMaxUInt

; 63   : 	DDX_Text(pDX, IDC_EC_NPTMINV, C.NptMinV);

	lea	ebx, DWORD PTR [edi+856]
	push	ebx
	push	216					; 000000d8H
	push	esi
	call	?DDX_Text@@YGXPAVCDataExchange@@HAAM@Z	; DDX_Text

; 64   : 	DDV_MinMaxFloat(pDX, C.NptMinV, 2, 50);

	fld	DWORD PTR __real@42480000
	sub	esp, 8
	fstp	DWORD PTR [esp+4]
	fld	DWORD PTR __real@40000000
	fstp	DWORD PTR [esp]
	push	ebx
	push	esi
	call	?DDV_MinMaxFloat@@YGXPAVCDataExchange@@ABMMM@Z ; DDV_MinMaxFloat

; 65   : 	DDX_Text(pDX, IDC_EC_NPTMINH, C.NptMinH);

	lea	ebx, DWORD PTR [edi+860]
	push	ebx
	push	220					; 000000dcH
	push	esi
	call	?DDX_Text@@YGXPAVCDataExchange@@HAAM@Z	; DDX_Text

; 66   : 	DDV_MinMaxFloat(pDX, C.NptMinH, 2, 50);

	fld	DWORD PTR __real@42480000
	sub	esp, 8
	fstp	DWORD PTR [esp+4]
	fld	DWORD PTR __real@40000000
	fstp	DWORD PTR [esp]
	push	ebx
	push	esi
	call	?DDV_MinMaxFloat@@YGXPAVCDataExchange@@ABMMM@Z ; DDV_MinMaxFloat

; 67   : 	DDX_Text(pDX, IDC_EC_NPTMIN01, C.NptMin01);

	lea	ebx, DWORD PTR [edi+864]
	push	ebx
	push	221					; 000000ddH
	push	esi
	call	?DDX_Text@@YGXPAVCDataExchange@@HAAM@Z	; DDX_Text

; 68   : 	DDV_MinMaxFloat(pDX, C.NptMin01, 2, 50);

	fld	DWORD PTR __real@42480000
	sub	esp, 8
	fstp	DWORD PTR [esp+4]
	fld	DWORD PTR __real@40000000
	fstp	DWORD PTR [esp]
	push	ebx
	push	esi
	call	?DDV_MinMaxFloat@@YGXPAVCDataExchange@@ABMMM@Z ; DDV_MinMaxFloat

; 69   : 	DDX_Text(pDX, IDC_EC_MINSLOPE, C.MinSlope);

	lea	ebx, DWORD PTR [edi+868]
	push	ebx
	push	213					; 000000d5H
	push	esi
	call	?DDX_Text@@YGXPAVCDataExchange@@HAAM@Z	; DDX_Text

; 70   : 	DDV_MinMaxFloat(pDX, C.MinSlope, -1.e-003f, 2.f);

	fld	DWORD PTR __real@40000000
	sub	esp, 8
	fstp	DWORD PTR [esp+4]
	fld	DWORD PTR __real@ba83126f
	fstp	DWORD PTR [esp]
	push	ebx
	push	esi
	call	?DDV_MinMaxFloat@@YGXPAVCDataExchange@@ABMMM@Z ; DDV_MinMaxFloat

; 71   : 	DDX_Text(pDX, IDC_EC_PROCESSORS, C.Processors);

	lea	ebx, DWORD PTR [edi+876]
	push	ebx
	push	222					; 000000deH
	push	esi
	call	?DDX_Text@@YGXPAVCDataExchange@@HAAH@Z	; DDX_Text

; 72   : 	DDV_MinMaxUInt(pDX, C.Processors, 0, 1024);

	mov	ecx, DWORD PTR [ebx]
	push	1024					; 00000400H
	push	0
	push	ecx
	push	esi
	call	?DDV_MinMaxUInt@@YGXPAVCDataExchange@@III@Z ; DDV_MinMaxUInt

; 73   : 	DDX_Text(pDX, IDC_EC_MAXTRACKINGTIME, C.MaxTrackingTime);

	lea	ebx, DWORD PTR [edi+880]
	push	ebx
	push	225					; 000000e1H
	push	esi
	call	?DDX_Text@@YGXPAVCDataExchange@@HAAH@Z	; DDX_Text

; 74   : 	DDV_MinMaxUInt(pDX, C.MaxTrackingTime, 20, 100000);

	mov	edx, DWORD PTR [ebx]
	push	100000					; 000186a0H
	push	20					; 00000014H
	push	edx
	push	esi
	call	?DDV_MinMaxUInt@@YGXPAVCDataExchange@@III@Z ; DDV_MinMaxUInt

; 75   : 	DDX_Text(pDX, IDC_EC_REPLICARADIUS, C.ReplicaRadius);

	lea	ebx, DWORD PTR [edi+884]
	push	ebx
	push	212					; 000000d4H
	push	esi
	call	?DDX_Text@@YGXPAVCDataExchange@@HAAM@Z	; DDX_Text

; 76   : 	DDV_MinMaxFloat(pDX, C.ReplicaRadius, 0.f, 5.f);

	fld	DWORD PTR __real@40a00000
	sub	esp, 8
	fstp	DWORD PTR [esp+4]
	fldz
	fstp	DWORD PTR [esp]
	push	ebx
	push	esi
	call	?DDV_MinMaxFloat@@YGXPAVCDataExchange@@ABMMM@Z ; DDV_MinMaxFloat

; 77   : 	DDX_Text(pDX, IDC_EC_REPLICASAMPLEDIVIDER, C.ReplicaSampleDivider);

	lea	ebx, DWORD PTR [edi+888]
	push	ebx
	push	215					; 000000d7H
	push	esi
	call	?DDX_Text@@YGXPAVCDataExchange@@HAAH@Z	; DDX_Text

; 78   : 	DDV_MinMaxUInt(pDX, C.ReplicaSampleDivider, 1, 64);

	mov	eax, DWORD PTR [ebx]
	push	64					; 00000040H
	push	1
	push	eax
	push	esi
	call	?DDV_MinMaxUInt@@YGXPAVCDataExchange@@III@Z ; DDV_MinMaxUInt

; 79   : 	DDX_Text(pDX, IDC_EC_MINREPLICAS, C.MinReplicas);

	lea	ebx, DWORD PTR [edi+892]
	push	ebx
	push	223					; 000000dfH
	push	esi
	call	?DDX_Text@@YGXPAVCDataExchange@@HAAH@Z	; DDX_Text

; 80   : 	DDV_MinMaxUInt(pDX, C.MinReplicas, 8, 1000);

	mov	ecx, DWORD PTR [ebx]
	push	1000					; 000003e8H
	push	8
	push	ecx
	push	esi
	call	?DDV_MinMaxUInt@@YGXPAVCDataExchange@@III@Z ; DDV_MinMaxUInt

; 81   : 	DDX_Text(pDX, IDC_EC_MAXREPLICASPREAD, C.MaxReplicaSpread);

	lea	ebx, DWORD PTR [edi+896]
	push	ebx
	push	224					; 000000e0H
	push	esi
	call	?DDX_Text@@YGXPAVCDataExchange@@HAAM@Z	; DDX_Text

; 82   : 	DDV_MinMaxFloat(pDX, C.MaxReplicaSpread, 0.01f, 3.f);

	fld	DWORD PTR __real@40400000
	sub	esp, 8
	fstp	DWORD PTR [esp+4]
	fld	DWORD PTR __real@3c23d70a
	fstp	DWORD PTR [esp]
	push	ebx
	push	esi
	call	?DDV_MinMaxFloat@@YGXPAVCDataExchange@@ABMMM@Z ; DDV_MinMaxFloat

; 83   : 	DDX_Text(pDX, IDC_EC_DISCARDSHADOWSIGMA, C.DiscardShadowSigma);

	lea	ebx, DWORD PTR [edi+900]
	push	ebx
	push	226					; 000000e2H
	push	esi
	call	?DDX_Text@@YGXPAVCDataExchange@@HAAM@Z	; DDX_Text

; 84   : 	DDV_MinMaxFloat(pDX, C.DiscardShadowSigma, 0.0f, 4.0f);

	fld	DWORD PTR __real@40800000
	sub	esp, 8
	fstp	DWORD PTR [esp+4]
	fldz
	fstp	DWORD PTR [esp]
	push	ebx
	push	esi
	call	?DDV_MinMaxFloat@@YGXPAVCDataExchange@@ABMMM@Z ; DDV_MinMaxFloat

; 85   : 	DDX_Check(pDX, IDC_EC_CHECKGRAINSPACING, C.CheckGrainSpacing);

	lea	edx, DWORD PTR [edi+904]
	push	edx
	push	227					; 000000e3H
	push	esi
	call	?DDX_Check@@YGXPAVCDataExchange@@HAAH@Z	; DDX_Check

; 86   : 	DDX_Text(pDX, IDC_EC_INITMULT, C.InitialMultiplicity);

	lea	ebx, DWORD PTR [edi+908]
	push	ebx
	push	228					; 000000e4H
	push	esi
	call	?DDX_Text@@YGXPAVCDataExchange@@HAAH@Z	; DDX_Text

; 87   : 	DDV_MinMaxUInt(pDX, C.InitialMultiplicity, 1, 4);

	mov	eax, DWORD PTR [ebx]
	push	4
	push	1
	push	eax
	push	esi
	call	?DDV_MinMaxUInt@@YGXPAVCDataExchange@@III@Z ; DDV_MinMaxUInt

; 88   : 	DDX_Text(pDX, IDC_EC_DZMULTIPLIER, C.DeltaZMultiplier);

	lea	ebx, DWORD PTR [edi+912]
	push	ebx
	push	229					; 000000e5H
	push	esi
	call	?DDX_Text@@YGXPAVCDataExchange@@HAAM@Z	; DDX_Text

; 89   : 	DDV_MinMaxUInt(pDX, C.DeltaZMultiplier, 0.1, 4);

	fld	DWORD PTR [ebx]
	fnstcw	WORD PTR tv322[esp+16]
	push	4
	movzx	eax, WORD PTR tv322[esp+20]
	or	eax, 3072				; 00000c00H
	mov	DWORD PTR tv326[esp+24], eax
	push	0
	fldcw	WORD PTR tv326[esp+28]
	fistp	QWORD PTR tv272[esp+28]
	mov	ecx, DWORD PTR tv272[esp+28]
	push	ecx
	push	esi
	fldcw	WORD PTR tv322[esp+32]
	call	?DDV_MinMaxUInt@@YGXPAVCDataExchange@@III@Z ; DDV_MinMaxUInt

; 90   : 	DDX_Check(pDX, IDC_EC_ALLOWOVERLAP, C.AllowOverlap);

	add	edi, 916				; 00000394H
	push	edi
	push	230					; 000000e6H
	push	esi
	call	?DDX_Check@@YGXPAVCDataExchange@@HAAH@Z	; DDX_Check
	pop	edi
	pop	esi
	pop	ebx

; 91   : }

	add	esp, 8
	ret	4
?DoDataExchange@CEditConfig@@MAEXPAVCDataExchange@@@Z ENDP ; CEditConfig::DoDataExchange
_TEXT	ENDS
PUBLIC	__$ArrayPad$
PUBLIC	?OnTest@CEditConfig@@IAEXXZ			; CEditConfig::OnTest
EXTRN	__imp__CoTaskMemFree@4:PROC
EXTRN	??0CTestDlg@@QAE@PAVCSmartTrackerClass@@PAVCWnd@@@Z:PROC ; CTestDlg::CTestDlg
EXTRN	?PutData@CSmartTrackerClass@@SAXPAUSySalConfig@@PAUConfigData@@@Z:PROC ; CSmartTrackerClass::PutData
;	COMDAT xdata$x
xdata$x	SEGMENT
__unwindtable$?OnTest@CEditConfig@@IAEXXZ DD 0ffffffffH
	DD	FLAT:__unwindfunclet$?OnTest@CEditConfig@@IAEXXZ$0
__ehfuncinfo$?OnTest@CEditConfig@@IAEXXZ DD 019930522H
	DD	01H
	DD	FLAT:__unwindtable$?OnTest@CEditConfig@@IAEXXZ
	DD	2 DUP(00H)
	DD	2 DUP(00H)
	DD	00H
	DD	01H
; Function compile flags: /Ogtpy
xdata$x	ENDS
;	COMDAT ?OnTest@CEditConfig@@IAEXXZ
_TEXT	SEGMENT
_Test$ = -304						; size = 144
_NewC$ = -160						; size = 72
_OldC$ = -88						; size = 72
__$ArrayPad$ = -16					; size = 4
__$EHRec$ = -12						; size = 12
?OnTest@CEditConfig@@IAEXXZ PROC			; CEditConfig::OnTest, COMDAT
; _this$ = ecx

; 201  : {

	push	-1
	push	__ehhandler$?OnTest@CEditConfig@@IAEXXZ
	mov	eax, DWORD PTR fs:0
	push	eax
	sub	esp, 292				; 00000124H
	mov	eax, DWORD PTR ___security_cookie
	xor	eax, esp
	mov	DWORD PTR __$ArrayPad$[esp+304], eax
	push	ebx
	push	esi
	mov	eax, DWORD PTR ___security_cookie
	xor	eax, esp
	push	eax
	lea	eax, DWORD PTR __$EHRec$[esp+316]
	mov	DWORD PTR fs:0, eax

; 202  : 	// TODO: Add your control notification handler code here
; 203  : 	UpdateData();

	push	1
	mov	esi, ecx
	call	?UpdateData@CWnd@@QAEHH@Z		; CWnd::UpdateData

; 204  : 
; 205  : 	SySalConfig OldC, NewC;
; 206  : 	OldC.Name[0] = NewC.Name[0] = 0;
; 207  : 	OldC.CountOfItems = NewC.CountOfItems = 0;
; 208  : 	OldC.pItems = NewC.pItems = 0;
; 209  : 
; 210  : 	pTk->GetConfig(&OldC);

	mov	eax, DWORD PTR [esi+1016]
	xor	ebx, ebx
	add	eax, 4
	lea	edx, DWORD PTR _OldC$[esp+316]
	mov	BYTE PTR _NewC$[esp+316], bl
	mov	BYTE PTR _OldC$[esp+316], bl
	mov	DWORD PTR _NewC$[esp+380], ebx
	mov	DWORD PTR _OldC$[esp+380], ebx
	mov	DWORD PTR _NewC$[esp+384], ebx
	mov	DWORD PTR _OldC$[esp+384], ebx
	mov	ecx, DWORD PTR [eax]
	push	edx
	push	eax
	mov	eax, DWORD PTR [ecx+24]
	call	eax

; 211  : 
; 212  : 	CSmartTrackerClass::PutData(&NewC, &C);

	lea	ecx, DWORD PTR [esi+116]
	push	ecx
	lea	edx, DWORD PTR _NewC$[esp+320]
	push	edx
	call	?PutData@CSmartTrackerClass@@SAXPAUSySalConfig@@PAUConfigData@@@Z ; CSmartTrackerClass::PutData

; 213  : 
; 214  : 	pTk->SetConfig(&NewC);

	mov	eax, DWORD PTR [esi+1016]
	mov	ecx, DWORD PTR [eax+4]
	add	esp, 8
	add	eax, 4
	lea	edx, DWORD PTR _NewC$[esp+316]
	push	edx
	push	eax
	mov	eax, DWORD PTR [ecx+20]
	call	eax

; 215  : 
; 216  : 	CTestDlg Test(pTk, this);

	mov	ecx, DWORD PTR [esi+1016]
	push	esi
	push	ecx
	lea	ecx, DWORD PTR _Test$[esp+324]
	call	??0CTestDlg@@QAE@PAVCSmartTrackerClass@@PAVCWnd@@@Z ; CTestDlg::CTestDlg

; 217  : 	Test.DoModal();

	lea	ecx, DWORD PTR _Test$[esp+316]
	mov	DWORD PTR __$EHRec$[esp+324], ebx
	call	?DoModal@CDialog@@UAEHXZ		; CDialog::DoModal

; 218  : 
; 219  : 	pTk->SetConfig(&OldC);

	mov	esi, DWORD PTR [esi+1016]
	mov	edx, DWORD PTR [esi+4]
	mov	edx, DWORD PTR [edx+20]
	lea	eax, DWORD PTR [esi+4]
	lea	ecx, DWORD PTR _OldC$[esp+316]
	push	ecx
	push	eax
	call	edx

; 220  : 
; 221  : 	if (OldC.pItems) CoTaskMemFree(OldC.pItems);

	mov	eax, DWORD PTR _OldC$[esp+384]
	cmp	eax, ebx
	mov	esi, DWORD PTR __imp__CoTaskMemFree@4
	je	SHORT $LN2@OnTest
	push	eax
	call	esi
$LN2@OnTest:

; 222  : 	if (NewC.pItems) CoTaskMemFree(NewC.pItems);

	mov	eax, DWORD PTR _NewC$[esp+384]
	cmp	eax, ebx
	je	SHORT $LN1@OnTest
	push	eax
	call	esi
$LN1@OnTest:

; 223  : }

	lea	ecx, DWORD PTR _Test$[esp+444]
	mov	DWORD PTR __$EHRec$[esp+324], -1
	call	DWORD PTR __imp_??1?$CStringT@DV?$StrTraitMFC_DLL@DV?$ChTraitsCRT@D@ATL@@@@@ATL@@QAE@XZ
	lea	ecx, DWORD PTR _Test$[esp+432]
	call	DWORD PTR __imp_??1?$CStringT@DV?$StrTraitMFC_DLL@DV?$ChTraitsCRT@D@ATL@@@@@ATL@@QAE@XZ
	lea	ecx, DWORD PTR _Test$[esp+316]
	call	??1CDialog@@UAE@XZ			; CDialog::~CDialog
	mov	ecx, DWORD PTR __$EHRec$[esp+316]
	mov	DWORD PTR fs:0, ecx
	pop	ecx
	pop	esi
	pop	ebx
	mov	ecx, DWORD PTR __$ArrayPad$[esp+304]
	xor	ecx, esp
	call	@__security_check_cookie@4
	add	esp, 304				; 00000130H
	ret	0
_TEXT	ENDS
;	COMDAT text$x
text$x	SEGMENT
__unwindfunclet$?OnTest@CEditConfig@@IAEXXZ$0:
	lea	ecx, DWORD PTR _Test$[ebp]
	jmp	??1CTestDlg@@UAE@XZ
__ehhandler$?OnTest@CEditConfig@@IAEXXZ:
	mov	edx, DWORD PTR [esp+8]
	lea	eax, DWORD PTR [edx-300]
	mov	ecx, DWORD PTR [edx-304]
	xor	ecx, eax
	call	@__security_check_cookie@4
	add	eax, 8
	mov	ecx, DWORD PTR [edx-4]
	xor	ecx, eax
	call	@__security_check_cookie@4
	mov	eax, OFFSET __ehfuncinfo$?OnTest@CEditConfig@@IAEXXZ
	jmp	___CxxFrameHandler3
text$x	ENDS
?OnTest@CEditConfig@@IAEXXZ ENDP			; CEditConfig::OnTest
PUBLIC	?GetThisMessageMap@CEditConfig@@KGPBUAFX_MSGMAP@@XZ ; CEditConfig::GetThisMessageMap
EXTRN	?GetThisMessageMap@CDialog@@KGPBUAFX_MSGMAP@@XZ:PROC ; CDialog::GetThisMessageMap
;	COMDAT ?_messageEntries@?1??GetThisMessageMap@CEditConfig@@KGPBUAFX_MSGMAP@@XZ@4QBUAFX_MSGMAP_ENTRY@@B
CONST	SEGMENT
?_messageEntries@?1??GetThisMessageMap@CEditConfig@@KGPBUAFX_MSGMAP@@XZ@4QBUAFX_MSGMAP_ENTRY@@B DD 0111H ; `CEditConfig::GetThisMessageMap'::`2'::_messageEntries
	DD	00H
	DD	0daH
	DD	0daH
	DD	038H
	DD	FLAT:?OnAdd@CEditConfig@@IAEXXZ
	DD	0111H
	DD	00H
	DD	0dbH
	DD	0dbH
	DD	038H
	DD	FLAT:?OnDel@CEditConfig@@IAEXXZ
	DD	0111H
	DD	00H
	DD	03H
	DD	03H
	DD	038H
	DD	FLAT:?OnTest@CEditConfig@@IAEXXZ
	DD	0111H
	DD	00H
	DD	04H
	DD	04H
	DD	038H
	DD	FLAT:?OnHelp@CEditConfig@@IAEXXZ
	DD	00H
	DD	00H
	DD	00H
	DD	00H
	DD	00H
	DD	00H
CONST	ENDS
;	COMDAT ?messageMap@?1??GetThisMessageMap@CEditConfig@@KGPBUAFX_MSGMAP@@XZ@4U3@B
CONST	SEGMENT
?messageMap@?1??GetThisMessageMap@CEditConfig@@KGPBUAFX_MSGMAP@@XZ@4U3@B DD FLAT:?GetThisMessageMap@CDialog@@KGPBUAFX_MSGMAP@@XZ ; `CEditConfig::GetThisMessageMap'::`2'::messageMap
	DD	FLAT:?_messageEntries@?1??GetThisMessageMap@CEditConfig@@KGPBUAFX_MSGMAP@@XZ@4QBUAFX_MSGMAP_ENTRY@@B
; Function compile flags: /Ogtpy
CONST	ENDS
;	COMDAT ?GetThisMessageMap@CEditConfig@@KGPBUAFX_MSGMAP@@XZ
_TEXT	SEGMENT
?GetThisMessageMap@CEditConfig@@KGPBUAFX_MSGMAP@@XZ PROC ; CEditConfig::GetThisMessageMap, COMDAT

; 95   : 	//{{AFX_MSG_MAP(CEditConfig)
; 96   : 	ON_BN_CLICKED(IDC_EC_ADD, OnAdd)
; 97   : 	ON_BN_CLICKED(IDC_EC_DEL, OnDel)
; 98   : 	ON_BN_CLICKED(IDC_EC_TEST, OnTest)
; 99   : 	ON_BN_CLICKED(IDC_EC_HELP, OnHelp)
; 100  : 	//}}AFX_MSG_MAP
; 101  : END_MESSAGE_MAP()

	mov	eax, OFFSET ?messageMap@?1??GetThisMessageMap@CEditConfig@@KGPBUAFX_MSGMAP@@XZ@4U3@B
	ret	0
?GetThisMessageMap@CEditConfig@@KGPBUAFX_MSGMAP@@XZ ENDP ; CEditConfig::GetThisMessageMap
; Function compile flags: /Ogtpy
_TEXT	ENDS
;	COMDAT ?GetMessageMap@CEditConfig@@MBEPBUAFX_MSGMAP@@XZ
_TEXT	SEGMENT
?GetMessageMap@CEditConfig@@MBEPBUAFX_MSGMAP@@XZ PROC	; CEditConfig::GetMessageMap, COMDAT
; _this$ = ecx

; 94   : BEGIN_MESSAGE_MAP(CEditConfig, CDialog)

	mov	eax, OFFSET ?messageMap@?1??GetThisMessageMap@CEditConfig@@KGPBUAFX_MSGMAP@@XZ@4U3@B
	ret	0
?GetMessageMap@CEditConfig@@MBEPBUAFX_MSGMAP@@XZ ENDP	; CEditConfig::GetMessageMap
_TEXT	ENDS
END
